GAS LISTING /tmp/ccg0FxGt.s 			page 1


   1              		.file	"main.cpp"
   2              		.option pic
   3              		.option norelax
   4              		.text
   5              	.Ltext0:
   6              		.section	.rodata.str1.8,"aMS",@progbits,1
   7              		.align	3
   8              	.LC0:
   9 0000 54687265 		.string	"ThreadA created\n"
   9      61644120 
   9      63726561 
   9      7465640A 
   9      00
  10 0011 00000000 		.align	3
  10      000000
  11              	.LC1:
  12 0018 54687265 		.string	"ThreadB created\n"
  12      61644220 
  12      63726561 
  12      7465640A 
  12      00
  13 0029 00000000 		.align	3
  13      000000
  14              	.LC2:
  15 0030 54687265 		.string	"ThreadC created\n"
  15      61644320 
  15      63726561 
  15      7465640A 
  15      00
  16 0041 00000000 		.align	3
  16      000000
  17              	.LC3:
  18 0048 54687265 		.string	"ThreadD created\n"
  18      61644420 
  18      63726561 
  18      7465640A 
  18      00
  19 0059 00000000 		.align	3
  19      000000
  20              	.LC4:
  21 0060 46696E69 		.string	"Finished\n"
  21      73686564 
  21      0A00
  22              		.text
  23              		.align	2
  24              		.globl	main
  26              	main:
  27              	.LFB44:
  28              		.file 1 "src/main.cpp"
   1:src/main.cpp  **** //
   2:src/main.cpp  **** // Created by marko on 20.4.22..
   3:src/main.cpp  **** //
   4:src/main.cpp  **** 
   5:src/main.cpp  **** #include "../h/tcb.hpp"
   6:src/main.cpp  **** #include "../h/workers.hpp"
   7:src/main.cpp  **** #include "../h/print.hpp"
   8:src/main.cpp  **** #include "../h/riscv.hpp"
GAS LISTING /tmp/ccg0FxGt.s 			page 2


   9:src/main.cpp  **** #include "../h/syscall_c.hpp"
  10:src/main.cpp  **** #include "../h/_sem.hpp"
  11:src/main.cpp  **** thread_t handle1;
  12:src/main.cpp  **** _sem* newsem;
  13:src/main.cpp  **** void main()
  14:src/main.cpp  **** {
  29              		.loc 1 14 1
  30              		.cfi_startproc
  31 0000 130101FB 		addi	sp,sp,-80
  32              		.cfi_def_cfa_offset 80
  33 0004 23341104 		sd	ra,72(sp)
  34 0008 23308104 		sd	s0,64(sp)
  35 000c 233C9102 		sd	s1,56(sp)
  36 0010 23382103 		sd	s2,48(sp)
  37              		.cfi_offset 1, -8
  38              		.cfi_offset 8, -16
  39              		.cfi_offset 9, -24
  40              		.cfi_offset 18, -32
  41 0014 13040105 		addi	s0,sp,80
  42              		.cfi_def_cfa 8, 0
  15:src/main.cpp  ****     Riscv::w_stvec((uint64) &Riscv::supervisorTrap);
  43              		.loc 1 15 5
  44              		.loc 1 15 19 is_stmt 0
  45 0018 97070000 		la	a5,_ZN5Riscv14supervisorTrapEv
  45      83B70700 
  46              	.LVL0:
  47              	.LBB28:
  48              	.LBB29:
  49              		.file 2 "src/../h/riscv.hpp"
   1:src/../h/riscv.hpp **** //
   2:src/../h/riscv.hpp **** // Created by marko on 20.4.22..
   3:src/../h/riscv.hpp **** //
   4:src/../h/riscv.hpp **** 
   5:src/../h/riscv.hpp **** #ifndef OS1_VEZBE07_RISCV_CONTEXT_SWITCH_2_INTERRUPT_RISCV_HPP
   6:src/../h/riscv.hpp **** #define OS1_VEZBE07_RISCV_CONTEXT_SWITCH_2_INTERRUPT_RISCV_HPP
   7:src/../h/riscv.hpp **** 
   8:src/../h/riscv.hpp **** #include "../lib/hw.h"
   9:src/../h/riscv.hpp **** 
  10:src/../h/riscv.hpp **** class Riscv
  11:src/../h/riscv.hpp **** {
  12:src/../h/riscv.hpp **** public:
  13:src/../h/riscv.hpp **** 
  14:src/../h/riscv.hpp ****     // pop sstatus.spp and sstatus.spie bits (has to be a non-inline function)
  15:src/../h/riscv.hpp ****     static void popSppSpie();
  16:src/../h/riscv.hpp **** 
  17:src/../h/riscv.hpp ****     // read register scause
  18:src/../h/riscv.hpp ****     static uint64 r_scause();
  19:src/../h/riscv.hpp **** 
  20:src/../h/riscv.hpp ****     // write register scause
  21:src/../h/riscv.hpp ****     static void w_scause(uint64 scause);
  22:src/../h/riscv.hpp **** 
  23:src/../h/riscv.hpp ****     // read register sepc
  24:src/../h/riscv.hpp ****     static uint64 r_sepc();
  25:src/../h/riscv.hpp **** 
  26:src/../h/riscv.hpp ****     // write register sepc
  27:src/../h/riscv.hpp ****     static void w_sepc(uint64 sepc);
  28:src/../h/riscv.hpp **** 
GAS LISTING /tmp/ccg0FxGt.s 			page 3


  29:src/../h/riscv.hpp ****     // read register stvec
  30:src/../h/riscv.hpp ****     static uint64 r_stvec();
  31:src/../h/riscv.hpp **** 
  32:src/../h/riscv.hpp ****     // write register stvec
  33:src/../h/riscv.hpp ****     static void w_stvec(uint64 stvec);
  34:src/../h/riscv.hpp **** 
  35:src/../h/riscv.hpp ****     // read register stval
  36:src/../h/riscv.hpp ****     static uint64 r_stval();
  37:src/../h/riscv.hpp **** 
  38:src/../h/riscv.hpp ****     // write register stval
  39:src/../h/riscv.hpp ****     static void w_stval(uint64 stval);
  40:src/../h/riscv.hpp **** 
  41:src/../h/riscv.hpp ****     enum BitMaskSip
  42:src/../h/riscv.hpp ****     {
  43:src/../h/riscv.hpp ****         SIP_SSIP = (1 << 1),
  44:src/../h/riscv.hpp ****         SIP_STIP = (1 << 5),
  45:src/../h/riscv.hpp ****         SIP_SEIP = (1 << 9),
  46:src/../h/riscv.hpp ****     };
  47:src/../h/riscv.hpp **** 
  48:src/../h/riscv.hpp ****     // mask set register sip
  49:src/../h/riscv.hpp ****     static void ms_sip(uint64 mask);
  50:src/../h/riscv.hpp **** 
  51:src/../h/riscv.hpp ****     // mask clear register sip
  52:src/../h/riscv.hpp ****     static void mc_sip(uint64 mask);
  53:src/../h/riscv.hpp **** 
  54:src/../h/riscv.hpp ****     // read register sip
  55:src/../h/riscv.hpp ****     static uint64 r_sip();
  56:src/../h/riscv.hpp **** 
  57:src/../h/riscv.hpp ****     // write register sip
  58:src/../h/riscv.hpp ****     static void w_sip(uint64 sip);
  59:src/../h/riscv.hpp **** 
  60:src/../h/riscv.hpp ****     enum BitMaskSstatus
  61:src/../h/riscv.hpp ****     {
  62:src/../h/riscv.hpp ****         SSTATUS_SIE = (1 << 1),
  63:src/../h/riscv.hpp ****         SSTATUS_SPIE = (1 << 5),
  64:src/../h/riscv.hpp ****         SSTATUS_SPP = (1 << 8),
  65:src/../h/riscv.hpp ****     };
  66:src/../h/riscv.hpp **** 
  67:src/../h/riscv.hpp ****     // mask set register sstatus
  68:src/../h/riscv.hpp ****     static void ms_sstatus(uint64 mask);
  69:src/../h/riscv.hpp **** 
  70:src/../h/riscv.hpp ****     // mask clear register sstatus
  71:src/../h/riscv.hpp ****     static void mc_sstatus(uint64 mask);
  72:src/../h/riscv.hpp **** 
  73:src/../h/riscv.hpp ****     // read register sstatus
  74:src/../h/riscv.hpp ****     static uint64 r_sstatus();
  75:src/../h/riscv.hpp **** 
  76:src/../h/riscv.hpp ****     // write register sstatus
  77:src/../h/riscv.hpp ****     static void w_sstatus(uint64 sstatus);
  78:src/../h/riscv.hpp **** 
  79:src/../h/riscv.hpp ****     // supervisor trap
  80:src/../h/riscv.hpp ****     static void supervisorTrap();
  81:src/../h/riscv.hpp **** 
  82:src/../h/riscv.hpp **** private:
  83:src/../h/riscv.hpp **** 
  84:src/../h/riscv.hpp ****     // supervisor trap handler
  85:src/../h/riscv.hpp ****     static void handleSupervisorTrap();
GAS LISTING /tmp/ccg0FxGt.s 			page 4


  86:src/../h/riscv.hpp **** 
  87:src/../h/riscv.hpp **** };
  88:src/../h/riscv.hpp **** 
  89:src/../h/riscv.hpp **** inline uint64 Riscv::r_scause()
  90:src/../h/riscv.hpp **** {
  91:src/../h/riscv.hpp ****     uint64 volatile scause;
  92:src/../h/riscv.hpp ****     __asm__ volatile ("csrr %[scause], scause" : [scause] "=r"(scause));
  93:src/../h/riscv.hpp ****     return scause;
  94:src/../h/riscv.hpp **** }
  95:src/../h/riscv.hpp **** 
  96:src/../h/riscv.hpp **** inline void Riscv::w_scause(uint64 scause)
  97:src/../h/riscv.hpp **** {
  98:src/../h/riscv.hpp ****     __asm__ volatile ("csrw scause, %[scause]" : : [scause] "r"(scause));
  99:src/../h/riscv.hpp **** }
 100:src/../h/riscv.hpp **** 
 101:src/../h/riscv.hpp **** inline uint64 Riscv::r_sepc()
 102:src/../h/riscv.hpp **** {
 103:src/../h/riscv.hpp ****     uint64 volatile sepc;
 104:src/../h/riscv.hpp ****     __asm__ volatile ("csrr %[sepc], sepc" : [sepc] "=r"(sepc));
 105:src/../h/riscv.hpp ****     return sepc;
 106:src/../h/riscv.hpp **** }
 107:src/../h/riscv.hpp **** 
 108:src/../h/riscv.hpp **** inline void Riscv::w_sepc(uint64 sepc)
 109:src/../h/riscv.hpp **** {
 110:src/../h/riscv.hpp ****     __asm__ volatile ("csrw sepc, %[sepc]" : : [sepc] "r"(sepc));
 111:src/../h/riscv.hpp **** }
 112:src/../h/riscv.hpp **** 
 113:src/../h/riscv.hpp **** inline uint64 Riscv::r_stvec()
 114:src/../h/riscv.hpp **** {
 115:src/../h/riscv.hpp ****     uint64 volatile stvec;
 116:src/../h/riscv.hpp ****     __asm__ volatile ("csrr %[stvec], stvec" : [stvec] "=r"(stvec));
 117:src/../h/riscv.hpp ****     return stvec;
 118:src/../h/riscv.hpp **** }
 119:src/../h/riscv.hpp **** 
 120:src/../h/riscv.hpp **** inline void Riscv::w_stvec(uint64 stvec)
 121:src/../h/riscv.hpp **** {
 122:src/../h/riscv.hpp ****     __asm__ volatile ("csrw stvec, %[stvec]" : : [stvec] "r"(stvec));
  50              		.loc 2 122 5 is_stmt 1
  51              		.loc 2 122 69 is_stmt 0
  52              	#APP
  53              	# 122 "src/../h/riscv.hpp" 1
 123              	}
  54              		csrw stvec, a5
  55              	# 0 "" 2
  56              	.LVL1:
  57              	#NO_APP
  58              	.LBE29:
  59              	.LBE28:
  16:src/main.cpp  **** 
  17:src/main.cpp  ****     TCB *threads[5];
  60              		.loc 1 17 5 is_stmt 1
  18:src/main.cpp  ****     newsem=new _sem(0);
  61              		.loc 1 18 5
  62              		.loc 1 18 22 is_stmt 0
  63 0024 13050003 		li	a0,48
  64 0028 97000000 		call	_Znwm@plt
  64      E7800000 
GAS LISTING /tmp/ccg0FxGt.s 			page 5


  65              	.LVL2:
  66              	.LBB30:
  67              	.LBB31:
  68              	.LBB32:
  69              	.LBB33:
  70              		.file 3 "src/../h/list.hpp"
   1:src/../h/list.hpp **** //
   2:src/../h/list.hpp **** // Created by marko on 20.4.22..
   3:src/../h/list.hpp **** //
   4:src/../h/list.hpp **** 
   5:src/../h/list.hpp **** #ifndef OS1_VEZBE07_RISCV_CONTEXT_SWITCH_2_INTERRUPT_LIST_HPP
   6:src/../h/list.hpp **** #define OS1_VEZBE07_RISCV_CONTEXT_SWITCH_2_INTERRUPT_LIST_HPP
   7:src/../h/list.hpp **** 
   8:src/../h/list.hpp **** template<typename T>
   9:src/../h/list.hpp **** class List
  10:src/../h/list.hpp **** {
  11:src/../h/list.hpp **** private:
  12:src/../h/list.hpp ****     struct Elem
  13:src/../h/list.hpp ****     {
  14:src/../h/list.hpp ****         T *data;
  15:src/../h/list.hpp ****         Elem *next;
  16:src/../h/list.hpp **** 
  17:src/../h/list.hpp ****         Elem(T *data, Elem *next) : data(data), next(next) {}
  18:src/../h/list.hpp ****     };
  19:src/../h/list.hpp **** 
  20:src/../h/list.hpp ****     Elem *head, *tail;
  21:src/../h/list.hpp ****     Elem* iterator = nullptr;
  22:src/../h/list.hpp ****     int size=0;
  23:src/../h/list.hpp **** public:
  24:src/../h/list.hpp ****     List() : head(0), tail(0) {}
  71              		.loc 3 24 29
  72 0030 23380500 		sd	zero,16(a0)
  73 0034 233C0500 		sd	zero,24(a0)
  74 0038 23300502 		sd	zero,32(a0)
  75 003c 23240502 		sw	zero,40(a0)
  76              	.LVL3:
  77              	.LBE33:
  78              	.LBE32:
  79              		.file 4 "src/../h/_sem.hpp"
   1:src/../h/_sem.hpp **** //
   2:src/../h/_sem.hpp **** // Created by os on 8/3/23.
   3:src/../h/_sem.hpp **** //
   4:src/../h/_sem.hpp **** 
   5:src/../h/_sem.hpp **** #ifndef PROJECT_BASE__SEM_HPP
   6:src/../h/_sem.hpp **** #define PROJECT_BASE__SEM_HPP
   7:src/../h/_sem.hpp **** #include "../lib/hw.h"
   8:src/../h/_sem.hpp **** #include "list.hpp"
   9:src/../h/_sem.hpp **** #include "tcb.hpp"
  10:src/../h/_sem.hpp **** 
  11:src/../h/_sem.hpp **** class _sem {
  12:src/../h/_sem.hpp **** public:
  13:src/../h/_sem.hpp ****     _sem(int initValue) {
  14:src/../h/_sem.hpp ****         val=initValue;
  80              		.loc 4 14 9 is_stmt 1
  81              		.loc 4 14 12 is_stmt 0
  82 0040 23220500 		sw	zero,4(a0)
  15:src/../h/_sem.hpp ****         blockedThreads=0;
GAS LISTING /tmp/ccg0FxGt.s 			page 6


  83              		.loc 4 15 9 is_stmt 1
  84              		.loc 4 15 23 is_stmt 0
  85 0044 23200500 		sw	zero,0(a0)
  16:src/../h/_sem.hpp ****         closed=false;
  86              		.loc 4 16 9 is_stmt 1
  87              		.loc 4 16 15 is_stmt 0
  88 0048 23040500 		sb	zero,8(a0)
  89              	.LVL4:
  90              	.LBE31:
  91              	.LBE30:
  92              		.loc 1 18 11
  93 004c 97040000 		lla	s1,.LANCHOR0
  93      93840400 
  94 0054 23B0A400 		sd	a0,0(s1)
  19:src/main.cpp  ****     thread_create(&threads[0], nullptr, nullptr);
  95              		.loc 1 19 5 is_stmt 1
  96              		.loc 1 19 18 is_stmt 0
  97 0058 13060000 		li	a2,0
  98 005c 93050000 		li	a1,0
  99 0060 130584FB 		addi	a0,s0,-72
 100 0064 97000000 		call	_Z13thread_createPP3TCBPFvPvES2_@plt
 100      E7800000 
 101              	.LVL5:
  20:src/main.cpp  ****     TCB::running = threads[0];
 102              		.loc 1 20 5 is_stmt 1
 103              		.loc 1 20 18 is_stmt 0
 104 006c 033784FB 		ld	a4,-72(s0)
 105 0070 97070000 		la	a5,_ZN3TCB7runningE
 105      83B70700 
 106 0078 23B0E700 		sd	a4,0(a5)
  21:src/main.cpp  **** 
  22:src/main.cpp  ****     thread_create(&threads[1], reinterpret_cast<void (*)(void *)>(workerBodyA), nullptr);
 107              		.loc 1 22 5 is_stmt 1
 108              		.loc 1 22 18 is_stmt 0
 109 007c 13060000 		li	a2,0
 110 0080 97050000 		la	a1,_Z11workerBodyAv
 110      83B50500 
 111 0088 130504FC 		addi	a0,s0,-64
 112 008c 97000000 		call	_Z13thread_createPP3TCBPFvPvES2_@plt
 112      E7800000 
 113              	.LVL6:
  23:src/main.cpp  ****     printString("ThreadA created\n");
 114              		.loc 1 23 5 is_stmt 1
 115              		.loc 1 23 16 is_stmt 0
 116 0094 17050000 		lla	a0,.LC0
 116      13050500 
 117 009c 97000000 		call	_Z11printStringPKc@plt
 117      E7800000 
 118              	.LVL7:
  24:src/main.cpp  ****     thread_create(&threads[2], reinterpret_cast<void (*)(void *)>(workerBodyB), nullptr);
 119              		.loc 1 24 5 is_stmt 1
 120              		.loc 1 24 18 is_stmt 0
 121 00a4 13060000 		li	a2,0
 122 00a8 97050000 		la	a1,_Z11workerBodyBv
 122      83B50500 
 123 00b0 130584FC 		addi	a0,s0,-56
 124 00b4 97000000 		call	_Z13thread_createPP3TCBPFvPvES2_@plt
GAS LISTING /tmp/ccg0FxGt.s 			page 7


 124      E7800000 
 125              	.LVL8:
  25:src/main.cpp  ****     printString("ThreadB created\n");
 126              		.loc 1 25 5 is_stmt 1
 127              		.loc 1 25 16 is_stmt 0
 128 00bc 17050000 		lla	a0,.LC1
 128      13050500 
 129 00c4 97000000 		call	_Z11printStringPKc@plt
 129      E7800000 
 130              	.LVL9:
  26:src/main.cpp  ****     thread_create(&threads[3], reinterpret_cast<void (*)(void *)>(workerBodyC), nullptr);
 131              		.loc 1 26 5 is_stmt 1
 132              		.loc 1 26 18 is_stmt 0
 133 00cc 13060000 		li	a2,0
 134 00d0 97050000 		la	a1,_Z11workerBodyCv
 134      83B50500 
 135 00d8 130504FD 		addi	a0,s0,-48
 136 00dc 97000000 		call	_Z13thread_createPP3TCBPFvPvES2_@plt
 136      E7800000 
 137              	.LVL10:
  27:src/main.cpp  ****     printString("ThreadC created\n");
 138              		.loc 1 27 5 is_stmt 1
 139              		.loc 1 27 16 is_stmt 0
 140 00e4 17050000 		lla	a0,.LC2
 140      13050500 
 141 00ec 97000000 		call	_Z11printStringPKc@plt
 141      E7800000 
 142              	.LVL11:
  28:src/main.cpp  ****     thread_create(&threads[4], reinterpret_cast<void (*)(void *)>(workerBodyD), nullptr);
 143              		.loc 1 28 5 is_stmt 1
 144              		.loc 1 28 18 is_stmt 0
 145 00f4 13060000 		li	a2,0
 146 00f8 97050000 		la	a1,_Z11workerBodyDv
 146      83B50500 
 147 0100 130584FD 		addi	a0,s0,-40
 148 0104 97000000 		call	_Z13thread_createPP3TCBPFvPvES2_@plt
 148      E7800000 
 149              	.LVL12:
  29:src/main.cpp  ****     printString("ThreadD created\n");
 150              		.loc 1 29 5 is_stmt 1
 151              		.loc 1 29 16 is_stmt 0
 152 010c 17050000 		lla	a0,.LC3
 152      13050500 
 153 0114 97000000 		call	_Z11printStringPKc@plt
 153      E7800000 
 154              	.LVL13:
  30:src/main.cpp  **** 
  31:src/main.cpp  ****     Riscv::ms_sstatus(Riscv::SSTATUS_SIE);
 155              		.loc 1 31 5 is_stmt 1
 156              	.LBB34:
 157              	.LBB35:
 124:src/../h/riscv.hpp **** 
 125:src/../h/riscv.hpp **** inline uint64 Riscv::r_stval()
 126:src/../h/riscv.hpp **** {
 127:src/../h/riscv.hpp ****     uint64 volatile stval;
 128:src/../h/riscv.hpp ****     __asm__ volatile ("csrr %[stval], stval" : [stval] "=r"(stval));
 129:src/../h/riscv.hpp ****     return stval;
GAS LISTING /tmp/ccg0FxGt.s 			page 8


 130:src/../h/riscv.hpp **** }
 131:src/../h/riscv.hpp **** 
 132:src/../h/riscv.hpp **** inline void Riscv::w_stval(uint64 stval)
 133:src/../h/riscv.hpp **** {
 134:src/../h/riscv.hpp ****     __asm__ volatile ("csrw stval, %[stval]" : : [stval] "r"(stval));
 135:src/../h/riscv.hpp **** }
 136:src/../h/riscv.hpp **** 
 137:src/../h/riscv.hpp **** inline void Riscv::ms_sip(uint64 mask)
 138:src/../h/riscv.hpp **** {
 139:src/../h/riscv.hpp ****     __asm__ volatile ("csrs sip, %[mask]" : : [mask] "r"(mask));
 140:src/../h/riscv.hpp **** }
 141:src/../h/riscv.hpp **** 
 142:src/../h/riscv.hpp **** inline void Riscv::mc_sip(uint64 mask)
 143:src/../h/riscv.hpp **** {
 144:src/../h/riscv.hpp ****     __asm__ volatile ("csrc sip, %[mask]" : : [mask] "r"(mask));
 145:src/../h/riscv.hpp **** }
 146:src/../h/riscv.hpp **** 
 147:src/../h/riscv.hpp **** inline uint64 Riscv::r_sip()
 148:src/../h/riscv.hpp **** {
 149:src/../h/riscv.hpp ****     uint64 volatile sip;
 150:src/../h/riscv.hpp ****     __asm__ volatile ("csrr %[sip], sip" : [sip] "=r"(sip));
 151:src/../h/riscv.hpp ****     return sip;
 152:src/../h/riscv.hpp **** }
 153:src/../h/riscv.hpp **** 
 154:src/../h/riscv.hpp **** inline void Riscv::w_sip(uint64 sip)
 155:src/../h/riscv.hpp **** {
 156:src/../h/riscv.hpp ****     __asm__ volatile ("csrw sip, %[sip]" : : [sip] "r"(sip));
 157:src/../h/riscv.hpp **** }
 158:src/../h/riscv.hpp **** 
 159:src/../h/riscv.hpp **** inline void Riscv::ms_sstatus(uint64 mask)
 160:src/../h/riscv.hpp **** {
 161:src/../h/riscv.hpp ****     __asm__ volatile ("csrs sstatus, %[mask]" : : [mask] "r"(mask));
 158              		.loc 2 161 5
 159              		.loc 2 161 68 is_stmt 0
 160 011c 93072000 		li	a5,2
 161              	#APP
 162              	# 161 "src/../h/riscv.hpp" 1
 162              	}
 163              		csrs sstatus, a5
 164              	# 0 "" 2
 165              	.LVL14:
 166              	#NO_APP
 167              	.LBE35:
 168              	.LBE34:
  32:src/main.cpp  ****     handle1 = threads[1];
 169              		.loc 1 32 5 is_stmt 1
 170              		.loc 1 32 24 is_stmt 0
 171 0124 833704FC 		ld	a5,-64(s0)
 172              		.loc 1 32 13
 173 0128 23B4F400 		sd	a5,8(s1)
 174 012c 6F00C000 		j	.L4
 175              	.L2:
  33:src/main.cpp  **** 
  34:src/main.cpp  ****    while (!(threads[1]->isFinished() &&
  35:src/main.cpp  ****              threads[2]->isFinished() &&
  36:src/main.cpp  ****              threads[3]->isFinished() &&
  37:src/main.cpp  ****              threads[4]->isFinished()))
GAS LISTING /tmp/ccg0FxGt.s 			page 9


  38:src/main.cpp  ****     {
  39:src/main.cpp  ****         thread_dispatch();
 176              		.loc 1 39 9 is_stmt 1 discriminator 3
 177              		.loc 1 39 24 is_stmt 0 discriminator 3
 178 0130 97000000 		call	_Z15thread_dispatchv@plt
 178      E7800000 
 179              	.LVL15:
 180              	.L4:
  34:src/main.cpp  ****              threads[2]->isFinished() &&
 181              		.loc 1 34 4 is_stmt 1
  34:src/main.cpp  ****              threads[2]->isFinished() &&
 182              		.loc 1 34 11
  34:src/main.cpp  ****              threads[2]->isFinished() &&
 183              		.loc 1 34 22 is_stmt 0
 184 0138 833704FC 		ld	a5,-64(s0)
 185              	.LVL16:
 186              	.LBB36:
 187              	.LBB37:
 188              		.file 5 "src/../h/tcb.hpp"
   1:src/../h/tcb.hpp **** //
   2:src/../h/tcb.hpp **** // Created by marko on 20.4.22..
   3:src/../h/tcb.hpp **** //
   4:src/../h/tcb.hpp **** 
   5:src/../h/tcb.hpp **** #ifndef OS1_VEZBE07_RISCV_CONTEXT_SWITCH_2_INTERRUPT_TCB_HPP
   6:src/../h/tcb.hpp **** #define OS1_VEZBE07_RISCV_CONTEXT_SWITCH_2_INTERRUPT_TCB_HPP
   7:src/../h/tcb.hpp **** 
   8:src/../h/tcb.hpp **** #include "../lib/hw.h"
   9:src/../h/tcb.hpp **** #include "scheduler.hpp"
  10:src/../h/tcb.hpp **** 
  11:src/../h/tcb.hpp **** // Thread Control Block
  12:src/../h/tcb.hpp **** class TCB
  13:src/../h/tcb.hpp **** {
  14:src/../h/tcb.hpp **** public:
  15:src/../h/tcb.hpp ****     ~TCB() { if (stack!= nullptr) delete[] stack; }
  16:src/../h/tcb.hpp **** 
  17:src/../h/tcb.hpp ****     bool isFinished() const { return finished; }
 189              		.loc 5 17 31 is_stmt 1
 190              		.loc 5 17 38 is_stmt 0
 191 013c 83C70703 		lbu	a5,48(a5)
 192              	.LVL17:
 193              	.LBE37:
 194              	.LBE36:
  34:src/main.cpp  ****              threads[2]->isFinished() &&
 195              		.loc 1 34 11
 196 0140 E38807FE 		beqz	a5,.L2
  35:src/main.cpp  ****              threads[3]->isFinished() &&
 197              		.loc 1 35 23 discriminator 2
 198 0144 833784FC 		ld	a5,-56(s0)
 199              	.LVL18:
 200              	.LBB38:
 201              	.LBB39:
 202              		.loc 5 17 31 is_stmt 1 discriminator 2
 203              		.loc 5 17 38 is_stmt 0 discriminator 2
 204 0148 83C70703 		lbu	a5,48(a5)
 205              	.LVL19:
 206              	.LBE39:
 207              	.LBE38:
GAS LISTING /tmp/ccg0FxGt.s 			page 10


  34:src/main.cpp  ****              threads[2]->isFinished() &&
 208              		.loc 1 34 38 discriminator 2
 209 014c E38207FE 		beqz	a5,.L2
  36:src/main.cpp  ****              threads[4]->isFinished()))
 210              		.loc 1 36 23
 211 0150 833704FD 		ld	a5,-48(s0)
 212              	.LVL20:
 213              	.LBB40:
 214              	.LBB41:
 215              		.loc 5 17 31 is_stmt 1
 216              		.loc 5 17 38 is_stmt 0
 217 0154 83C70703 		lbu	a5,48(a5)
 218              	.LVL21:
 219              	.LBE41:
 220              	.LBE40:
  35:src/main.cpp  ****              threads[3]->isFinished() &&
 221              		.loc 1 35 39
 222 0158 E38C07FC 		beqz	a5,.L2
  37:src/main.cpp  ****     {
 223              		.loc 1 37 23 discriminator 4
 224 015c 833784FD 		ld	a5,-40(s0)
 225              	.LVL22:
 226              	.LBB42:
 227              	.LBB43:
 228              		.loc 5 17 31 is_stmt 1 discriminator 4
 229              		.loc 5 17 38 is_stmt 0 discriminator 4
 230 0160 83C70703 		lbu	a5,48(a5)
 231              	.LVL23:
 232              	.LBE43:
 233              	.LBE42:
  34:src/main.cpp  ****              threads[2]->isFinished() &&
 234              		.loc 1 34 11 discriminator 4
 235 0164 E38607FC 		beqz	a5,.L2
 236 0168 93041000 		li	s1,1
 237 016c 6F004001 		j	.L3
 238              	.LVL24:
 239              	.L7:
 240              	.LBB44:
  40:src/main.cpp  ****     }
  41:src/main.cpp  **** 
  42:src/main.cpp  ****    for (int i=1;i<5;i++){
  43:src/main.cpp  ****        delete threads[i];
 241              		.loc 1 43 24
 242 0170 13050900 		mv	a0,s2
 243 0174 97000000 		call	_ZdlPv@plt
 243      E7800000 
 244              	.LVL25:
 245              	.L6:
  42:src/main.cpp  ****        delete threads[i];
 246              		.loc 1 42 4 is_stmt 1 discriminator 2
 247 017c 9B841400 		addiw	s1,s1,1
 248              	.LVL26:
 249              	.L3:
  42:src/main.cpp  ****        delete threads[i];
 250              		.loc 1 42 18 discriminator 1
 251 0180 93074000 		li	a5,4
 252 0184 63C69702 		bgt	s1,a5,.L5
GAS LISTING /tmp/ccg0FxGt.s 			page 11


 253              		.loc 1 43 8
 254              		.loc 1 43 24 is_stmt 0
 255 0188 93973400 		slli	a5,s1,3
 256 018c 130704FE 		addi	a4,s0,-32
 257 0190 B307F700 		add	a5,a4,a5
 258 0194 03B987FD 		ld	s2,-40(a5)
 259              		.loc 1 43 25
 260 0198 E30209FE 		beqz	s2,.L6
 261              	.LVL27:
 262              	.LBB45:
 263              	.LBB46:
  15:src/../h/tcb.hpp **** 
 264              		.loc 5 15 14 is_stmt 1
  15:src/../h/tcb.hpp **** 
 265              		.loc 5 15 18 is_stmt 0
 266 019c 03350901 		ld	a0,16(s2)
  15:src/../h/tcb.hpp **** 
 267              		.loc 5 15 14
 268 01a0 E30805FC 		beqz	a0,.L7
  15:src/../h/tcb.hpp **** 
 269              		.loc 5 15 35 is_stmt 1
  15:src/../h/tcb.hpp **** 
 270              		.loc 5 15 44 is_stmt 0
 271 01a4 97000000 		call	_ZdaPv@plt
 271      E7800000 
 272              	.LVL28:
 273 01ac 6FF05FFC 		j	.L7
 274              	.LVL29:
 275              	.L5:
 276              	.LBE46:
 277              	.LBE45:
 278              	.LBE44:
  44:src/main.cpp  ****    }
  45:src/main.cpp  **** 
  46:src/main.cpp  ****     printString("Finished\n");
 279              		.loc 1 46 5 is_stmt 1
 280              		.loc 1 46 16 is_stmt 0
 281 01b0 17050000 		lla	a0,.LC4
 281      13050500 
 282 01b8 97000000 		call	_Z11printStringPKc@plt
 282      E7800000 
 283              	.LVL30:
  47:src/main.cpp  **** 
  48:src/main.cpp  ****     return;
 284              		.loc 1 48 5 is_stmt 1
  49:src/main.cpp  **** }
 285              		.loc 1 49 1 is_stmt 0
 286 01c0 83308104 		ld	ra,72(sp)
 287              		.cfi_restore 1
 288 01c4 03340104 		ld	s0,64(sp)
 289              		.cfi_restore 8
 290              		.cfi_def_cfa 2, 80
 291 01c8 83348103 		ld	s1,56(sp)
 292              		.cfi_restore 9
 293              	.LVL31:
 294 01cc 03390103 		ld	s2,48(sp)
 295              		.cfi_restore 18
GAS LISTING /tmp/ccg0FxGt.s 			page 12


 296 01d0 13010105 		addi	sp,sp,80
 297              		.cfi_def_cfa_offset 0
 298 01d4 67800000 		jr	ra
 299              		.cfi_endproc
 300              	.LFE44:
 302              		.globl	newsem
 303              		.globl	handle1
 304              		.bss
 305              		.align	3
 306              		.set	.LANCHOR0,. + 0
 309              	newsem:
 310 0000 00000000 		.zero	8
 310      00000000 
 313              	handle1:
 314 0008 00000000 		.zero	8
 314      00000000 
 315              		.text
 316              	.Letext0:
 317              		.file 6 "src/../h/../lib/hw.h"
 318              		.file 7 "src/../h/syscall_c.hpp"
 319              		.file 8 "src/../h/print.hpp"
GAS LISTING /tmp/ccg0FxGt.s 			page 13

