GAS LISTING /tmp/ccbC26Vw.s 			page 1


   1              		.file	"syscall_c.cpp"
   2              		.option pic
   3              		.option norelax
   4              		.text
   5              	.Ltext0:
   6              		.align	2
   7              		.globl	_Z13thread_createPP3TCBPFvPvES2_
   9              	_Z13thread_createPP3TCBPFvPvES2_:
  10              	.LFB0:
  11              		.file 1 "src/syscall_c.cpp"
   1:src/syscall_c.cpp **** //
   2:src/syscall_c.cpp **** // Created by os on 7/1/23.
   3:src/syscall_c.cpp **** //
   4:src/syscall_c.cpp **** 
   5:src/syscall_c.cpp **** #include "../h/syscall_c.hpp"
   6:src/syscall_c.cpp **** #include "../lib/hw.h"
   7:src/syscall_c.cpp **** #include "../h/print.hpp"
   8:src/syscall_c.cpp **** 
   9:src/syscall_c.cpp **** 
  10:src/syscall_c.cpp **** int thread_create(thread_t *handle, void (*start_routine)(void *), void *arg) {
  12              		.loc 1 10 79
  13              		.cfi_startproc
  14              	.LVL0:
  15 0000 130101FF 		addi	sp,sp,-16
  16              		.cfi_def_cfa_offset 16
  17 0004 23348100 		sd	s0,8(sp)
  18              		.cfi_offset 8, -8
  19 0008 13040101 		addi	s0,sp,16
  20              		.cfi_def_cfa 8, 0
  11:src/syscall_c.cpp ****     __asm__ volatile ("mv a3, %0" : : "r" (arg));
  21              		.loc 1 11 5
  22              		.loc 1 11 49 is_stmt 0
  23              	#APP
  24              	# 11 "src/syscall_c.cpp" 1
  12              	    __asm__ volatile ("mv a2, %0" : : "r" (start_routine));
  25              		mv a3, a2
  26              	# 0 "" 2
  27              		.loc 1 12 5 is_stmt 1
  28              		.loc 1 12 59 is_stmt 0
  29              	# 12 "src/syscall_c.cpp" 1
  13              	    __asm__ volatile ("mv a1, %0" : : "r" (handle));
  30              		mv a2, a1
  31              	# 0 "" 2
  32              		.loc 1 13 5 is_stmt 1
  33              		.loc 1 13 52 is_stmt 0
  34              	# 13 "src/syscall_c.cpp" 1
  14              	    __asm__ volatile ("mv a0, %0" : : "r" (SCALL_THREAD_CREATE));
  35              		mv a1, a0
  36              	# 0 "" 2
  37              		.loc 1 14 5 is_stmt 1
  38              		.loc 1 14 65 is_stmt 0
  39              	#NO_APP
  40 0018 93071001 		li	a5,17
  41              	#APP
  42              	# 14 "src/syscall_c.cpp" 1
  15              	
  16:src/syscall_c.cpp **** 
GAS LISTING /tmp/ccbC26Vw.s 			page 2


  17:src/syscall_c.cpp ****     __asm__ volatile ("ecall");
  43              		mv a0, a5
  44              	# 0 "" 2
  45              		.loc 1 17 5 is_stmt 1
  46              		.loc 1 17 31 is_stmt 0
  47              	# 17 "src/syscall_c.cpp" 1
  18              	
  19:src/syscall_c.cpp ****     int retValue;
  48              		ecall
  49              	# 0 "" 2
  50              		.loc 1 19 5 is_stmt 1
  20:src/syscall_c.cpp ****     __asm__ volatile ("mv %0,a0" :  "=r" (retValue));
  51              		.loc 1 20 5
  52              		.loc 1 20 53 is_stmt 0
  53              	# 20 "src/syscall_c.cpp" 1
  21              	
  54              		mv a0,a0
  55              	# 0 "" 2
  56              	.LVL1:
  22:src/syscall_c.cpp ****     return  retValue;
  57              		.loc 1 22 5 is_stmt 1
  23:src/syscall_c.cpp **** 
  24:src/syscall_c.cpp **** }
  58              		.loc 1 24 1 is_stmt 0
  59              	#NO_APP
  60 0028 1B050500 		sext.w	a0,a0
  61 002c 03348100 		ld	s0,8(sp)
  62              		.cfi_restore 8
  63              		.cfi_def_cfa 2, 16
  64 0030 13010101 		addi	sp,sp,16
  65              		.cfi_def_cfa_offset 0
  66 0034 67800000 		jr	ra
  67              		.cfi_endproc
  68              	.LFE0:
  70              		.align	2
  71              		.globl	_Z15thread_dispatchv
  73              	_Z15thread_dispatchv:
  74              	.LFB1:
  25:src/syscall_c.cpp **** 
  26:src/syscall_c.cpp **** void thread_dispatch() {
  75              		.loc 1 26 24 is_stmt 1
  76              		.cfi_startproc
  77 0038 130101FF 		addi	sp,sp,-16
  78              		.cfi_def_cfa_offset 16
  79 003c 23348100 		sd	s0,8(sp)
  80              		.cfi_offset 8, -8
  81 0040 13040101 		addi	s0,sp,16
  82              		.cfi_def_cfa 8, 0
  27:src/syscall_c.cpp ****     __asm__ volatile ("mv a0, %0" : : "r" (SCALL_THREAD_DISPATCH));
  83              		.loc 1 27 5
  84              		.loc 1 27 67 is_stmt 0
  85 0044 93073001 		li	a5,19
  86              	#APP
  87              	# 27 "src/syscall_c.cpp" 1
  28              	    __asm__ volatile ("ecall");
  88              		mv a0, a5
  89              	# 0 "" 2
GAS LISTING /tmp/ccbC26Vw.s 			page 3


  90              		.loc 1 28 5 is_stmt 1
  91              		.loc 1 28 31 is_stmt 0
  92              	# 28 "src/syscall_c.cpp" 1
  29              	
  30:src/syscall_c.cpp **** }
  93              		ecall
  94              	# 0 "" 2
  95              		.loc 1 30 1
  96              	#NO_APP
  97 0050 03348100 		ld	s0,8(sp)
  98              		.cfi_restore 8
  99              		.cfi_def_cfa 2, 16
 100 0054 13010101 		addi	sp,sp,16
 101              		.cfi_def_cfa_offset 0
 102 0058 67800000 		jr	ra
 103              		.cfi_endproc
 104              	.LFE1:
 106              		.align	2
 107              		.globl	_Z9mem_allocm
 109              	_Z9mem_allocm:
 110              	.LFB2:
  31:src/syscall_c.cpp **** 
  32:src/syscall_c.cpp **** void *mem_alloc(size_t size) {
 111              		.loc 1 32 30 is_stmt 1
 112              		.cfi_startproc
 113              	.LVL2:
 114 005c 130101FF 		addi	sp,sp,-16
 115              		.cfi_def_cfa_offset 16
 116 0060 23348100 		sd	s0,8(sp)
 117              		.cfi_offset 8, -8
 118 0064 13040101 		addi	s0,sp,16
 119              		.cfi_def_cfa 8, 0
  33:src/syscall_c.cpp **** 
  34:src/syscall_c.cpp ****     __asm__ volatile ("mv a1,%0" : : "r"(size));
 120              		.loc 1 34 5
 121              		.loc 1 34 48 is_stmt 0
 122              	#APP
 123              	# 34 "src/syscall_c.cpp" 1
  35              	    __asm__ volatile ("mv a0, %0" : : "r" (MEM_ALLOC));
 124              		mv a1,a0
 125              	# 0 "" 2
 126              		.loc 1 35 5 is_stmt 1
 127              		.loc 1 35 55 is_stmt 0
 128              	#NO_APP
 129 006c 93071000 		li	a5,1
 130              	#APP
 131              	# 35 "src/syscall_c.cpp" 1
  36              	    __asm__ volatile ("ecall");
 132              		mv a0, a5
 133              	# 0 "" 2
 134              		.loc 1 36 5 is_stmt 1
 135              		.loc 1 36 31 is_stmt 0
 136              	# 36 "src/syscall_c.cpp" 1
  37              	
  38:src/syscall_c.cpp **** 
  39:src/syscall_c.cpp ****     void* retp;
 137              		ecall
GAS LISTING /tmp/ccbC26Vw.s 			page 4


 138              	# 0 "" 2
 139              		.loc 1 39 5 is_stmt 1
  40:src/syscall_c.cpp ****     __asm__ volatile ("mv %0, a0" : "=r" (retp));
 140              		.loc 1 40 5
 141              		.loc 1 40 49 is_stmt 0
 142              	# 40 "src/syscall_c.cpp" 1
  41              	
 143              		mv a0, a0
 144              	# 0 "" 2
 145              	.LVL3:
  42:src/syscall_c.cpp ****     return retp;
 146              		.loc 1 42 5 is_stmt 1
  43:src/syscall_c.cpp **** }
 147              		.loc 1 43 1 is_stmt 0
 148              	#NO_APP
 149 007c 03348100 		ld	s0,8(sp)
 150              		.cfi_restore 8
 151              		.cfi_def_cfa 2, 16
 152 0080 13010101 		addi	sp,sp,16
 153              		.cfi_def_cfa_offset 0
 154 0084 67800000 		jr	ra
 155              		.cfi_endproc
 156              	.LFE2:
 158              		.align	2
 159              		.globl	_Z8mem_freePv
 161              	_Z8mem_freePv:
 162              	.LFB3:
  44:src/syscall_c.cpp **** 
  45:src/syscall_c.cpp **** int mem_free(void * address) {
 163              		.loc 1 45 30 is_stmt 1
 164              		.cfi_startproc
 165              	.LVL4:
 166 0088 130101FF 		addi	sp,sp,-16
 167              		.cfi_def_cfa_offset 16
 168 008c 23348100 		sd	s0,8(sp)
 169              		.cfi_offset 8, -8
 170 0090 13040101 		addi	s0,sp,16
 171              		.cfi_def_cfa 8, 0
  46:src/syscall_c.cpp ****     __asm__ volatile ("mv a1,%0" : : "r"(address));
 172              		.loc 1 46 5
 173              		.loc 1 46 51 is_stmt 0
 174              	#APP
 175              	# 46 "src/syscall_c.cpp" 1
  47              	    __asm__ volatile ("mv a0, %0" : : "r" (MEM_FREE));
 176              		mv a1,a0
 177              	# 0 "" 2
 178              		.loc 1 47 5 is_stmt 1
 179              		.loc 1 47 54 is_stmt 0
 180              	#NO_APP
 181 0098 93072000 		li	a5,2
 182              	#APP
 183              	# 47 "src/syscall_c.cpp" 1
  48              	    __asm__ volatile ("ecall");
 184              		mv a0, a5
 185              	# 0 "" 2
 186              		.loc 1 48 5 is_stmt 1
 187              		.loc 1 48 31 is_stmt 0
GAS LISTING /tmp/ccbC26Vw.s 			page 5


 188              	# 48 "src/syscall_c.cpp" 1
  49              	
  50:src/syscall_c.cpp **** 
  51:src/syscall_c.cpp ****     int retValue;
 189              		ecall
 190              	# 0 "" 2
 191              		.loc 1 51 5 is_stmt 1
  52:src/syscall_c.cpp ****     __asm__ volatile ("mv %0,a0" :  "=r" (retValue));
 192              		.loc 1 52 5
 193              		.loc 1 52 53 is_stmt 0
 194              	# 52 "src/syscall_c.cpp" 1
  53              	
 195              		mv a0,a0
 196              	# 0 "" 2
 197              	.LVL5:
  54:src/syscall_c.cpp ****     return  retValue;
 198              		.loc 1 54 5 is_stmt 1
  55:src/syscall_c.cpp **** }
 199              		.loc 1 55 1 is_stmt 0
 200              	#NO_APP
 201 00a8 1B050500 		sext.w	a0,a0
 202 00ac 03348100 		ld	s0,8(sp)
 203              		.cfi_restore 8
 204              		.cfi_def_cfa 2, 16
 205 00b0 13010101 		addi	sp,sp,16
 206              		.cfi_def_cfa_offset 0
 207 00b4 67800000 		jr	ra
 208              		.cfi_endproc
 209              	.LFE3:
 211              	.Letext0:
 212              		.file 2 "src/../h/../lib/hw.h"
 213              		.file 3 "src/../h/syscall_c.hpp"
GAS LISTING /tmp/ccbC26Vw.s 			page 6

