GAS LISTING /tmp/ccnjDXQ6.s 			page 1


   1              		.file	"tcb.cpp"
   2              		.option pic
   3              		.option norelax
   4              		.text
   5              	.Ltext0:
   6              		.align	2
   7              		.globl	_ZN3TCB12createThreadEPFvPvES0_
   9              	_ZN3TCB12createThreadEPFvPvES0_:
  10              	.LFB33:
  11              		.file 1 "src/tcb.cpp"
   1:src/tcb.cpp   **** //
   2:src/tcb.cpp   **** // Created by marko on 20.4.22..
   3:src/tcb.cpp   **** //
   4:src/tcb.cpp   **** 
   5:src/tcb.cpp   **** #include "../h/tcb.hpp"
   6:src/tcb.cpp   **** #include "../h/riscv.hpp"
   7:src/tcb.cpp   **** #include "../h/syscall_c.hpp"
   8:src/tcb.cpp   **** 
   9:src/tcb.cpp   **** TCB *TCB::running = nullptr;
  10:src/tcb.cpp   **** 
  11:src/tcb.cpp   **** uint64 TCB::timeSliceCounter = 0;
  12:src/tcb.cpp   **** 
  13:src/tcb.cpp   **** TCB *TCB::createThread(Body body, void* arg)
  14:src/tcb.cpp   **** {
  12              		.loc 1 14 1
  13              		.cfi_startproc
  14              		.cfi_personality 0x9b,DW.ref.__gxx_personality_v0
  15              		.cfi_lsda 0x1b,.LLSDA33
  16              	.LVL0:
  17 0000 130101FD 		addi	sp,sp,-48
  18              		.cfi_def_cfa_offset 48
  19 0004 23341102 		sd	ra,40(sp)
  20 0008 23308102 		sd	s0,32(sp)
  21 000c 233C9100 		sd	s1,24(sp)
  22 0010 23382101 		sd	s2,16(sp)
  23 0014 23343101 		sd	s3,8(sp)
  24              		.cfi_offset 1, -8
  25              		.cfi_offset 8, -16
  26              		.cfi_offset 9, -24
  27              		.cfi_offset 18, -32
  28              		.cfi_offset 19, -40
  29 0018 13040103 		addi	s0,sp,48
  30              		.cfi_def_cfa 8, 0
  31 001c 13090500 		mv	s2,a0
  32 0020 93890500 		mv	s3,a1
  15:src/tcb.cpp   ****     return new TCB(body,arg, TIME_SLICE);
  33              		.loc 1 15 5
  34              		.loc 1 15 40 is_stmt 0
  35 0024 13058003 		li	a0,56
  36              	.LVL1:
  37              	.LEHB0:
  38 0028 97000000 		call	_Znwm@plt
  38      E7800000 
  39              	.LVL2:
  40              	.LEHE0:
  41 0030 93040500 		mv	s1,a0
  42              	.LVL3:
GAS LISTING /tmp/ccnjDXQ6.s 			page 2


  43              	.LBB9:
  44              	.LBB10:
  45              		.file 2 "src/../h/tcb.hpp"
   1:src/../h/tcb.hpp **** //
   2:src/../h/tcb.hpp **** // Created by marko on 20.4.22..
   3:src/../h/tcb.hpp **** //
   4:src/../h/tcb.hpp **** 
   5:src/../h/tcb.hpp **** #ifndef OS1_VEZBE07_RISCV_CONTEXT_SWITCH_2_INTERRUPT_TCB_HPP
   6:src/../h/tcb.hpp **** #define OS1_VEZBE07_RISCV_CONTEXT_SWITCH_2_INTERRUPT_TCB_HPP
   7:src/../h/tcb.hpp **** 
   8:src/../h/tcb.hpp **** #include "../lib/hw.h"
   9:src/../h/tcb.hpp **** #include "scheduler.hpp"
  10:src/../h/tcb.hpp **** 
  11:src/../h/tcb.hpp **** // Thread Control Block
  12:src/../h/tcb.hpp **** class TCB
  13:src/../h/tcb.hpp **** {
  14:src/../h/tcb.hpp **** public:
  15:src/../h/tcb.hpp ****     ~TCB() { if (stack!= nullptr) delete[] stack; }
  16:src/../h/tcb.hpp **** 
  17:src/../h/tcb.hpp ****     bool isFinished() const { return finished; }
  18:src/../h/tcb.hpp **** 
  19:src/../h/tcb.hpp ****     void setFinished(bool value) { finished = value; }
  20:src/../h/tcb.hpp **** 
  21:src/../h/tcb.hpp ****     uint64 getTimeSlice() const { return timeSlice; }
  22:src/../h/tcb.hpp **** 
  23:src/../h/tcb.hpp ****     using Body = void (*)(void *);
  24:src/../h/tcb.hpp **** 
  25:src/../h/tcb.hpp ****     static TCB *createThread(Body body, void* arg);
  26:src/../h/tcb.hpp **** 
  27:src/../h/tcb.hpp ****     static void yield();
  28:src/../h/tcb.hpp **** 
  29:src/../h/tcb.hpp ****     static TCB *running;
  30:src/../h/tcb.hpp **** 
  31:src/../h/tcb.hpp **** private:
  32:src/../h/tcb.hpp ****     TCB(Body body, void* arg,uint64 timeSlice) :
  33:src/../h/tcb.hpp ****             arg(arg),
  34:src/../h/tcb.hpp ****             body(body),
  35:src/../h/tcb.hpp ****             stack(body != nullptr ? new uint64[STACK_SIZE] : nullptr),
  36:src/../h/tcb.hpp ****             context({(uint64) &threadWrapper,
  37:src/../h/tcb.hpp ****                      stack != nullptr ? (uint64) &stack[STACK_SIZE] : 0
  38:src/../h/tcb.hpp ****                     }),
  39:src/../h/tcb.hpp ****             timeSlice(timeSlice),
  40:src/../h/tcb.hpp ****             finished(false)
  46              		.loc 2 40 27
  47 0034 23303501 		sd	s3,0(a0)
  48 0038 23342501 		sd	s2,8(a0)
  35:src/../h/tcb.hpp ****             context({(uint64) &threadWrapper,
  49              		.loc 2 35 35
  50 003c 630A0900 		beqz	s2,.L6
  35:src/../h/tcb.hpp ****             context({(uint64) &threadWrapper,
  51              		.loc 2 35 58
  52 0040 37250000 		li	a0,8192
  53              	.LEHB1:
  54 0044 97000000 		call	_Znam@plt
  54      E7800000 
  55              	.LVL4:
  56 004c 6F008000 		j	.L2
GAS LISTING /tmp/ccnjDXQ6.s 			page 3


  57              	.L6:
  35:src/../h/tcb.hpp ****             context({(uint64) &threadWrapper,
  58              		.loc 2 35 35
  59 0050 13050000 		li	a0,0
  60              	.L2:
  61              		.loc 2 40 27
  62 0054 23B8A400 		sd	a0,16(s1)
  63 0058 97070000 		lla	a5,_ZN3TCB13threadWrapperEv
  63      93870700 
  64 0060 23BCF400 		sd	a5,24(s1)
  37:src/../h/tcb.hpp ****                     }),
  65              		.loc 2 37 39
  66 0064 63080502 		beqz	a0,.L7
  37:src/../h/tcb.hpp ****                     }),
  67              		.loc 2 37 50
  68 0068 B7270000 		li	a5,8192
  69 006c B307F500 		add	a5,a0,a5
  70              	.L3:
  71              		.loc 2 40 27
  72 0070 23B0F402 		sd	a5,32(s1)
  73 0074 93072000 		li	a5,2
  74 0078 23B4F402 		sd	a5,40(s1)
  75 007c 23880402 		sb	zero,48(s1)
  41:src/../h/tcb.hpp ****     {
  42:src/../h/tcb.hpp ****         if (body != nullptr) { Scheduler::put(this); }
  76              		.loc 2 42 9 is_stmt 1
  77 0080 630C0902 		beqz	s2,.L1
  78              		.loc 2 42 32
  79              		.loc 2 42 46 is_stmt 0
  80 0084 13850400 		mv	a0,s1
  81 0088 97000000 		call	_ZN9Scheduler3putEP3TCB@plt
  81      E7800000 
  82              	.LVL5:
  83              	.LEHE1:
  84 0090 6F008002 		j	.L1
  85              	.L7:
  37:src/../h/tcb.hpp ****                     }),
  86              		.loc 2 37 39
  87 0094 93070000 		li	a5,0
  88 0098 6FF09FFD 		j	.L3
  89              	.L8:
  90 009c 13090500 		mv	s2,a0
  91              	.LVL6:
  92              	.LBE10:
  93              	.LBE9:
  94              		.loc 1 15 40
  95 00a0 13850400 		mv	a0,s1
  96 00a4 97000000 		call	_ZdlPv@plt
  96      E7800000 
  97              	.LVL7:
  98 00ac 13050900 		mv	a0,s2
  99              	.LEHB2:
 100 00b0 97000000 		call	_Unwind_Resume@plt
 100      E7800000 
 101              	.LVL8:
 102              	.LEHE2:
 103              	.L1:
GAS LISTING /tmp/ccnjDXQ6.s 			page 4


  16:src/tcb.cpp   **** }
 104              		.loc 1 16 1
 105 00b8 13850400 		mv	a0,s1
 106 00bc 83308102 		ld	ra,40(sp)
 107              		.cfi_restore 1
 108 00c0 03340102 		ld	s0,32(sp)
 109              		.cfi_restore 8
 110              		.cfi_def_cfa 2, 48
 111 00c4 83348101 		ld	s1,24(sp)
 112              		.cfi_restore 9
 113              	.LVL9:
 114 00c8 03390101 		ld	s2,16(sp)
 115              		.cfi_restore 18
 116              	.LVL10:
 117 00cc 83398100 		ld	s3,8(sp)
 118              		.cfi_restore 19
 119              	.LVL11:
 120 00d0 13010103 		addi	sp,sp,48
 121              		.cfi_def_cfa_offset 0
 122 00d4 67800000 		jr	ra
 123              		.cfi_endproc
 124              	.LFE33:
 125              		.globl	__gxx_personality_v0
 126              		.section	.gcc_except_table,"a",@progbits
 127              	.LLSDA33:
 128 0000 FF       		.byte	0xff
 129 0001 FF       		.byte	0xff
 130 0002 03       		.byte	0x3
 131 0003 27       		.byte	0x27
 132 0004 00000000 		.4byte	.LEHB0-.LFB33
 133 0008 00000000 		.4byte	.LEHE0-.LEHB0
 134 000c 00000000 		.4byte	0
 135 0010 00       		.byte	0
 136 0011 00000000 		.4byte	.LEHB1-.LFB33
 137 0015 00000000 		.4byte	.LEHE1-.LEHB1
 138 0019 00000000 		.4byte	.L8-.LFB33
 139 001d 00       		.byte	0
 140 001e 00000000 		.4byte	.LEHB2-.LFB33
 141 0022 00000000 		.4byte	.LEHE2-.LEHB2
 142 0026 00000000 		.4byte	0
 143 002a 00       		.byte	0
 144              		.text
 146              		.align	2
 147              		.globl	_ZN3TCB5yieldEv
 149              	_ZN3TCB5yieldEv:
 150              	.LFB34:
  17:src/tcb.cpp   **** 
  18:src/tcb.cpp   **** void TCB::yield()
  19:src/tcb.cpp   **** {
 151              		.loc 1 19 1 is_stmt 1
 152              		.cfi_startproc
 153 00d8 130101FF 		addi	sp,sp,-16
 154              		.cfi_def_cfa_offset 16
 155 00dc 23341100 		sd	ra,8(sp)
 156 00e0 23308100 		sd	s0,0(sp)
 157              		.cfi_offset 1, -8
 158              		.cfi_offset 8, -16
GAS LISTING /tmp/ccnjDXQ6.s 			page 5


 159 00e4 13040101 		addi	s0,sp,16
 160              		.cfi_def_cfa 8, 0
  20:src/tcb.cpp   ****     thread_dispatch();
 161              		.loc 1 20 5
 162              		.loc 1 20 20 is_stmt 0
 163 00e8 97000000 		call	_Z15thread_dispatchv@plt
 163      E7800000 
 164              	.LVL12:
  21:src/tcb.cpp   **** }
 165              		.loc 1 21 1
 166 00f0 83308100 		ld	ra,8(sp)
 167              		.cfi_restore 1
 168 00f4 03340100 		ld	s0,0(sp)
 169              		.cfi_restore 8
 170              		.cfi_def_cfa 2, 16
 171 00f8 13010101 		addi	sp,sp,16
 172              		.cfi_def_cfa_offset 0
 173 00fc 67800000 		jr	ra
 174              		.cfi_endproc
 175              	.LFE34:
 177              		.align	2
 178              		.globl	_ZN3TCB13threadWrapperEv
 180              	_ZN3TCB13threadWrapperEv:
 181              	.LFB36:
  22:src/tcb.cpp   **** 
  23:src/tcb.cpp   **** void TCB::dispatch()
  24:src/tcb.cpp   **** {
  25:src/tcb.cpp   ****     TCB *old = running;
  26:src/tcb.cpp   ****     if (!old->isFinished()) { Scheduler::put(old); }
  27:src/tcb.cpp   ****     running = Scheduler::get();
  28:src/tcb.cpp   **** 
  29:src/tcb.cpp   ****     TCB::contextSwitch(&old->context, &running->context);
  30:src/tcb.cpp   **** 
  31:src/tcb.cpp   **** 
  32:src/tcb.cpp   **** }
  33:src/tcb.cpp   **** 
  34:src/tcb.cpp   **** void TCB::threadWrapper()
  35:src/tcb.cpp   **** {
 182              		.loc 1 35 1 is_stmt 1
 183              		.cfi_startproc
 184 0100 130101FE 		addi	sp,sp,-32
 185              		.cfi_def_cfa_offset 32
 186 0104 233C1100 		sd	ra,24(sp)
 187 0108 23388100 		sd	s0,16(sp)
 188 010c 23349100 		sd	s1,8(sp)
 189              		.cfi_offset 1, -8
 190              		.cfi_offset 8, -16
 191              		.cfi_offset 9, -24
 192 0110 13040102 		addi	s0,sp,32
 193              		.cfi_def_cfa 8, 0
  36:src/tcb.cpp   ****     Riscv::popSppSpie();
 194              		.loc 1 36 5
 195              		.loc 1 36 22 is_stmt 0
 196 0114 97000000 		call	_ZN5Riscv10popSppSpieEv@plt
 196      E7800000 
 197              	.LVL13:
  37:src/tcb.cpp   ****     running->body(running->arg);
GAS LISTING /tmp/ccnjDXQ6.s 			page 6


 198              		.loc 1 37 5 is_stmt 1
 199              		.loc 1 37 14 is_stmt 0
 200 011c 97040000 		lla	s1,.LANCHOR0
 200      93840400 
 201 0124 83B70400 		ld	a5,0(s1)
 202 0128 03B78700 		ld	a4,8(a5)
 203              		.loc 1 37 18
 204 012c 03B50700 		ld	a0,0(a5)
 205 0130 E7000700 		jalr	a4
 206              	.LVL14:
  38:src/tcb.cpp   ****     running->setFinished(true);
 207              		.loc 1 38 5 is_stmt 1
 208              		.loc 1 38 25 is_stmt 0
 209 0134 83B70400 		ld	a5,0(s1)
 210              	.LVL15:
 211              	.LBB11:
 212              	.LBB12:
  19:src/../h/tcb.hpp **** 
 213              		.loc 2 19 36 is_stmt 1
  19:src/../h/tcb.hpp **** 
 214              		.loc 2 19 45 is_stmt 0
 215 0138 13071000 		li	a4,1
 216 013c 2388E702 		sb	a4,48(a5)
 217              	.LVL16:
 218              	.LBE12:
 219              	.LBE11:
  39:src/tcb.cpp   ****     TCB::yield();
 220              		.loc 1 39 5 is_stmt 1
 221              		.loc 1 39 15 is_stmt 0
 222 0140 97000000 		call	_ZN3TCB5yieldEv
 222      E7800000 
 223              	.LVL17:
  40:src/tcb.cpp   **** }
 224              		.loc 1 40 1
 225 0148 83308101 		ld	ra,24(sp)
 226              		.cfi_restore 1
 227 014c 03340101 		ld	s0,16(sp)
 228              		.cfi_restore 8
 229              		.cfi_def_cfa 2, 32
 230 0150 83348100 		ld	s1,8(sp)
 231              		.cfi_restore 9
 232 0154 13010102 		addi	sp,sp,32
 233              		.cfi_def_cfa_offset 0
 234 0158 67800000 		jr	ra
 235              		.cfi_endproc
 236              	.LFE36:
 238              		.align	2
 239              		.globl	_ZN3TCB8dispatchEv
 241              	_ZN3TCB8dispatchEv:
 242              	.LFB35:
  24:src/tcb.cpp   ****     TCB *old = running;
 243              		.loc 1 24 1 is_stmt 1
 244              		.cfi_startproc
 245 015c 130101FE 		addi	sp,sp,-32
 246              		.cfi_def_cfa_offset 32
 247 0160 233C1100 		sd	ra,24(sp)
 248 0164 23388100 		sd	s0,16(sp)
GAS LISTING /tmp/ccnjDXQ6.s 			page 7


 249 0168 23349100 		sd	s1,8(sp)
 250              		.cfi_offset 1, -8
 251              		.cfi_offset 8, -16
 252              		.cfi_offset 9, -24
 253 016c 13040102 		addi	s0,sp,32
 254              		.cfi_def_cfa 8, 0
  25:src/tcb.cpp   ****     if (!old->isFinished()) { Scheduler::put(old); }
 255              		.loc 1 25 5
  25:src/tcb.cpp   ****     if (!old->isFinished()) { Scheduler::put(old); }
 256              		.loc 1 25 10 is_stmt 0
 257 0170 97040000 		ld	s1,.LANCHOR0
 257      83B40400 
 258              	.LVL18:
  26:src/tcb.cpp   ****     running = Scheduler::get();
 259              		.loc 1 26 5 is_stmt 1
 260              	.LBB13:
 261              	.LBB14:
  17:src/../h/tcb.hpp **** 
 262              		.loc 2 17 31
  17:src/../h/tcb.hpp **** 
 263              		.loc 2 17 38 is_stmt 0
 264 0178 83C70403 		lbu	a5,48(s1)
 265              	.LVL19:
 266              	.LBE14:
 267              	.LBE13:
  26:src/tcb.cpp   ****     running = Scheduler::get();
 268              		.loc 1 26 5
 269 017c 638C0702 		beqz	a5,.L17
 270              	.L15:
  27:src/tcb.cpp   **** 
 271              		.loc 1 27 5 is_stmt 1
  27:src/tcb.cpp   **** 
 272              		.loc 1 27 29 is_stmt 0
 273 0180 97000000 		call	_ZN9Scheduler3getEv@plt
 273      E7800000 
 274              	.LVL20:
  27:src/tcb.cpp   **** 
 275              		.loc 1 27 13
 276 0188 97070000 		sd	a0,.LANCHOR0,a5
 276      23B0A700 
  29:src/tcb.cpp   **** 
 277              		.loc 1 29 5 is_stmt 1
  29:src/tcb.cpp   **** 
 278              		.loc 1 29 23 is_stmt 0
 279 0190 93058501 		addi	a1,a0,24
 280 0194 13858401 		addi	a0,s1,24
 281 0198 97000000 		call	_ZN3TCB13contextSwitchEPNS_7ContextES1_@plt
 281      E7800000 
 282              	.LVL21:
  32:src/tcb.cpp   **** 
 283              		.loc 1 32 1
 284 01a0 83308101 		ld	ra,24(sp)
 285              		.cfi_remember_state
 286              		.cfi_restore 1
 287 01a4 03340101 		ld	s0,16(sp)
 288              		.cfi_restore 8
 289              		.cfi_def_cfa 2, 32
GAS LISTING /tmp/ccnjDXQ6.s 			page 8


 290 01a8 83348100 		ld	s1,8(sp)
 291              		.cfi_restore 9
 292              	.LVL22:
 293 01ac 13010102 		addi	sp,sp,32
 294              		.cfi_def_cfa_offset 0
 295 01b0 67800000 		jr	ra
 296              	.LVL23:
 297              	.L17:
 298              		.cfi_restore_state
  26:src/tcb.cpp   ****     running = Scheduler::get();
 299              		.loc 1 26 31 is_stmt 1 discriminator 1
  26:src/tcb.cpp   ****     running = Scheduler::get();
 300              		.loc 1 26 45 is_stmt 0 discriminator 1
 301 01b4 13850400 		mv	a0,s1
 302 01b8 97000000 		call	_ZN9Scheduler3putEP3TCB@plt
 302      E7800000 
 303              	.LVL24:
 304 01c0 6FF01FFC 		j	.L15
 305              		.cfi_endproc
 306              	.LFE35:
 308              		.globl	_ZN3TCB16timeSliceCounterE
 309              		.globl	_ZN3TCB7runningE
 310              		.bss
 311              		.align	3
 312              		.set	.LANCHOR0,. + 0
 315              	_ZN3TCB7runningE:
 316 0000 00000000 		.zero	8
 316      00000000 
 319              	_ZN3TCB16timeSliceCounterE:
 320 0008 00000000 		.zero	8
 320      00000000 
 321              		.text
 322              	.Letext0:
 323              		.file 3 "src/../h/../lib/hw.h"
 324              		.file 4 "src/../h/scheduler.hpp"
 325              		.file 5 "src/../h/riscv.hpp"
 326              		.file 6 "src/../h/syscall_c.hpp"
 2541              		.align	3
 2544              	DW.ref.__gxx_personality_v0:
 2545 0000 00000000 		.dword	__gxx_personality_v0
 2545      00000000 
 2546              		.ident	"GCC: (Ubuntu 9.4.0-1ubuntu1~20.04) 9.4.0"
 2547              		.section	.note.GNU-stack,"",@progbits
GAS LISTING /tmp/ccnjDXQ6.s 			page 9


DEFINED SYMBOLS
                            *ABS*:0000000000000000 tcb.cpp
     /tmp/ccnjDXQ6.s:9      .text:0000000000000000 _ZN3TCB12createThreadEPFvPvES0_
     /tmp/ccnjDXQ6.s:13     .text:0000000000000000 .L0 
     /tmp/ccnjDXQ6.s:2544   .data.rel.local.DW.ref.__gxx_personality_v0:0000000000000000 DW.ref.__gxx_personality_v0
     /tmp/ccnjDXQ6.s:17     .text:0000000000000000 .L0 
     /tmp/ccnjDXQ6.s:18     .text:0000000000000004 .L0 
     /tmp/ccnjDXQ6.s:24     .text:0000000000000018 .L0 
     /tmp/ccnjDXQ6.s:25     .text:0000000000000018 .L0 
     /tmp/ccnjDXQ6.s:26     .text:0000000000000018 .L0 
     /tmp/ccnjDXQ6.s:27     .text:0000000000000018 .L0 
     /tmp/ccnjDXQ6.s:28     .text:0000000000000018 .L0 
     /tmp/ccnjDXQ6.s:30     .text:000000000000001c .L0 
     /tmp/ccnjDXQ6.s:34     .text:0000000000000024 .L0 
     /tmp/ccnjDXQ6.s:35     .text:0000000000000024 .L0 
     /tmp/ccnjDXQ6.s:47     .text:0000000000000034 .L0 
     /tmp/ccnjDXQ6.s:50     .text:000000000000003c .L0 
     /tmp/ccnjDXQ6.s:52     .text:0000000000000040 .L0 
     /tmp/ccnjDXQ6.s:59     .text:0000000000000050 .L0 
     /tmp/ccnjDXQ6.s:62     .text:0000000000000054 .L0 
     /tmp/ccnjDXQ6.s:180    .text:0000000000000100 _ZN3TCB13threadWrapperEv
     /tmp/ccnjDXQ6.s:66     .text:0000000000000064 .L0 
     /tmp/ccnjDXQ6.s:68     .text:0000000000000068 .L0 
     /tmp/ccnjDXQ6.s:72     .text:0000000000000070 .L0 
     /tmp/ccnjDXQ6.s:77     .text:0000000000000080 .L0 
     /tmp/ccnjDXQ6.s:79     .text:0000000000000084 .L0 
     /tmp/ccnjDXQ6.s:80     .text:0000000000000084 .L0 
     /tmp/ccnjDXQ6.s:87     .text:0000000000000094 .L0 
     /tmp/ccnjDXQ6.s:95     .text:00000000000000a0 .L0 
     /tmp/ccnjDXQ6.s:105    .text:00000000000000b8 .L0 
     /tmp/ccnjDXQ6.s:107    .text:00000000000000c0 .L0 
     /tmp/ccnjDXQ6.s:109    .text:00000000000000c4 .L0 
     /tmp/ccnjDXQ6.s:110    .text:00000000000000c4 .L0 
     /tmp/ccnjDXQ6.s:112    .text:00000000000000c8 .L0 
     /tmp/ccnjDXQ6.s:115    .text:00000000000000cc .L0 
     /tmp/ccnjDXQ6.s:118    .text:00000000000000d0 .L0 
     /tmp/ccnjDXQ6.s:121    .text:00000000000000d4 .L0 
     /tmp/ccnjDXQ6.s:123    .text:00000000000000d8 .L0 
     /tmp/ccnjDXQ6.s:149    .text:00000000000000d8 _ZN3TCB5yieldEv
     /tmp/ccnjDXQ6.s:152    .text:00000000000000d8 .L0 
     /tmp/ccnjDXQ6.s:153    .text:00000000000000d8 .L0 
     /tmp/ccnjDXQ6.s:154    .text:00000000000000dc .L0 
     /tmp/ccnjDXQ6.s:157    .text:00000000000000e4 .L0 
     /tmp/ccnjDXQ6.s:158    .text:00000000000000e4 .L0 
     /tmp/ccnjDXQ6.s:160    .text:00000000000000e8 .L0 
     /tmp/ccnjDXQ6.s:162    .text:00000000000000e8 .L0 
     /tmp/ccnjDXQ6.s:163    .text:00000000000000e8 .L0 
     /tmp/ccnjDXQ6.s:166    .text:00000000000000f0 .L0 
     /tmp/ccnjDXQ6.s:167    .text:00000000000000f4 .L0 
     /tmp/ccnjDXQ6.s:169    .text:00000000000000f8 .L0 
     /tmp/ccnjDXQ6.s:170    .text:00000000000000f8 .L0 
     /tmp/ccnjDXQ6.s:172    .text:00000000000000fc .L0 
     /tmp/ccnjDXQ6.s:174    .text:0000000000000100 .L0 
     /tmp/ccnjDXQ6.s:183    .text:0000000000000100 .L0 
     /tmp/ccnjDXQ6.s:184    .text:0000000000000100 .L0 
     /tmp/ccnjDXQ6.s:185    .text:0000000000000104 .L0 
     /tmp/ccnjDXQ6.s:189    .text:0000000000000110 .L0 
GAS LISTING /tmp/ccnjDXQ6.s 			page 10


     /tmp/ccnjDXQ6.s:190    .text:0000000000000110 .L0 
     /tmp/ccnjDXQ6.s:191    .text:0000000000000110 .L0 
     /tmp/ccnjDXQ6.s:193    .text:0000000000000114 .L0 
     /tmp/ccnjDXQ6.s:195    .text:0000000000000114 .L0 
     /tmp/ccnjDXQ6.s:196    .text:0000000000000114 .L0 
     /tmp/ccnjDXQ6.s:199    .text:000000000000011c .L0 
     /tmp/ccnjDXQ6.s:200    .text:000000000000011c .L0 
     /tmp/ccnjDXQ6.s:204    .text:000000000000012c .L0 
     /tmp/ccnjDXQ6.s:208    .text:0000000000000134 .L0 
     /tmp/ccnjDXQ6.s:209    .text:0000000000000134 .L0 
     /tmp/ccnjDXQ6.s:214    .text:0000000000000138 .L0 
     /tmp/ccnjDXQ6.s:215    .text:0000000000000138 .L0 
     /tmp/ccnjDXQ6.s:221    .text:0000000000000140 .L0 
     /tmp/ccnjDXQ6.s:222    .text:0000000000000140 .L0 
     /tmp/ccnjDXQ6.s:225    .text:0000000000000148 .L0 
     /tmp/ccnjDXQ6.s:226    .text:000000000000014c .L0 
     /tmp/ccnjDXQ6.s:228    .text:0000000000000150 .L0 
     /tmp/ccnjDXQ6.s:229    .text:0000000000000150 .L0 
     /tmp/ccnjDXQ6.s:231    .text:0000000000000154 .L0 
     /tmp/ccnjDXQ6.s:233    .text:0000000000000158 .L0 
     /tmp/ccnjDXQ6.s:235    .text:000000000000015c .L0 
     /tmp/ccnjDXQ6.s:241    .text:000000000000015c _ZN3TCB8dispatchEv
     /tmp/ccnjDXQ6.s:244    .text:000000000000015c .L0 
     /tmp/ccnjDXQ6.s:245    .text:000000000000015c .L0 
     /tmp/ccnjDXQ6.s:246    .text:0000000000000160 .L0 
     /tmp/ccnjDXQ6.s:250    .text:000000000000016c .L0 
     /tmp/ccnjDXQ6.s:251    .text:000000000000016c .L0 
     /tmp/ccnjDXQ6.s:252    .text:000000000000016c .L0 
     /tmp/ccnjDXQ6.s:254    .text:0000000000000170 .L0 
     /tmp/ccnjDXQ6.s:256    .text:0000000000000170 .L0 
     /tmp/ccnjDXQ6.s:257    .text:0000000000000170 .L0 
     /tmp/ccnjDXQ6.s:262    .text:0000000000000178 .L0 
     /tmp/ccnjDXQ6.s:263    .text:0000000000000178 .L0 
     /tmp/ccnjDXQ6.s:264    .text:0000000000000178 .L0 
     /tmp/ccnjDXQ6.s:269    .text:000000000000017c .L0 
     /tmp/ccnjDXQ6.s:272    .text:0000000000000180 .L0 
     /tmp/ccnjDXQ6.s:273    .text:0000000000000180 .L0 
     /tmp/ccnjDXQ6.s:276    .text:0000000000000188 .L0 
     /tmp/ccnjDXQ6.s:278    .text:0000000000000190 .L0 
     /tmp/ccnjDXQ6.s:279    .text:0000000000000190 .L0 
     /tmp/ccnjDXQ6.s:284    .text:00000000000001a0 .L0 
     /tmp/ccnjDXQ6.s:285    .text:00000000000001a4 .L0 
     /tmp/ccnjDXQ6.s:286    .text:00000000000001a4 .L0 
     /tmp/ccnjDXQ6.s:288    .text:00000000000001a8 .L0 
     /tmp/ccnjDXQ6.s:289    .text:00000000000001a8 .L0 
     /tmp/ccnjDXQ6.s:291    .text:00000000000001ac .L0 
     /tmp/ccnjDXQ6.s:294    .text:00000000000001b0 .L0 
     /tmp/ccnjDXQ6.s:298    .text:00000000000001b4 .L0 
     /tmp/ccnjDXQ6.s:300    .text:00000000000001b4 .L0 
     /tmp/ccnjDXQ6.s:301    .text:00000000000001b4 .L0 
     /tmp/ccnjDXQ6.s:305    .text:00000000000001c4 .L0 
     /tmp/ccnjDXQ6.s:319    .bss:0000000000000008 _ZN3TCB16timeSliceCounterE
     /tmp/ccnjDXQ6.s:315    .bss:0000000000000000 _ZN3TCB7runningE
     /tmp/ccnjDXQ6.s:312    .bss:0000000000000000 .LANCHOR0
     /tmp/ccnjDXQ6.s:327    .text:00000000000001c4 .L0 
     /tmp/ccnjDXQ6.s:63     .text:0000000000000058 .L0 
     /tmp/ccnjDXQ6.s:200    .text:000000000000011c .L0 
GAS LISTING /tmp/ccnjDXQ6.s 			page 11


     /tmp/ccnjDXQ6.s:257    .text:0000000000000170 .L0 
     /tmp/ccnjDXQ6.s:276    .text:0000000000000188 .L0 
     /tmp/ccnjDXQ6.s:57     .text:0000000000000050 .L6
     /tmp/ccnjDXQ6.s:60     .text:0000000000000054 .L2
     /tmp/ccnjDXQ6.s:85     .text:0000000000000094 .L7
     /tmp/ccnjDXQ6.s:103    .text:00000000000000b8 .L1
     /tmp/ccnjDXQ6.s:70     .text:0000000000000070 .L3
     /tmp/ccnjDXQ6.s:297    .text:00000000000001b4 .L17
     /tmp/ccnjDXQ6.s:270    .text:0000000000000180 .L15
     /tmp/ccnjDXQ6.s:37     .text:0000000000000028 .LEHB0
     /tmp/ccnjDXQ6.s:10     .text:0000000000000000 .LFB33
     /tmp/ccnjDXQ6.s:40     .text:0000000000000030 .LEHE0
     /tmp/ccnjDXQ6.s:53     .text:0000000000000044 .LEHB1
     /tmp/ccnjDXQ6.s:83     .text:0000000000000090 .LEHE1
     /tmp/ccnjDXQ6.s:89     .text:000000000000009c .L8
     /tmp/ccnjDXQ6.s:99     .text:00000000000000b0 .LEHB2
     /tmp/ccnjDXQ6.s:102    .text:00000000000000b8 .LEHE2
     /tmp/ccnjDXQ6.s:1258   .debug_abbrev:0000000000000000 .Ldebug_abbrev0
     /tmp/ccnjDXQ6.s:2510   .debug_str:00000000000005db .LASF100
     /tmp/ccnjDXQ6.s:2422   .debug_str:000000000000033f .LASF101
     /tmp/ccnjDXQ6.s:2372   .debug_str:00000000000001be .LASF102
     /tmp/ccnjDXQ6.s:5      .text:0000000000000000 .Ltext0
     /tmp/ccnjDXQ6.s:322    .text:00000000000001c4 .Letext0
     /tmp/ccnjDXQ6.s:2308   .debug_line:0000000000000000 .Ldebug_line0
     /tmp/ccnjDXQ6.s:2438   .debug_str:00000000000003ae .LASF0
     /tmp/ccnjDXQ6.s:2450   .debug_str:00000000000003fb .LASF1
     /tmp/ccnjDXQ6.s:2426   .debug_str:0000000000000352 .LASF2
     /tmp/ccnjDXQ6.s:2356   .debug_str:000000000000016d .LASF3
     /tmp/ccnjDXQ6.s:2400   .debug_str:00000000000002c8 .LASF4
     /tmp/ccnjDXQ6.s:2486   .debug_str:000000000000051f .LASF5
     /tmp/ccnjDXQ6.s:2330   .debug_str:0000000000000086 .LASF6
     /tmp/ccnjDXQ6.s:2452   .debug_str:000000000000040e .LASF7
     /tmp/ccnjDXQ6.s:2436   .debug_str:000000000000039b .LASF8
     /tmp/ccnjDXQ6.s:2514   .debug_str:00000000000006ae .LASF9
     /tmp/ccnjDXQ6.s:2386   .debug_str:0000000000000235 .LASF10
     /tmp/ccnjDXQ6.s:2464   .debug_str:0000000000000482 .LASF11
     /tmp/ccnjDXQ6.s:2512   .debug_str:000000000000069f .LASF12
     /tmp/ccnjDXQ6.s:2332   .debug_str:000000000000008d .LASF13
     /tmp/ccnjDXQ6.s:2314   .debug_str:000000000000001e .LASF14
     /tmp/ccnjDXQ6.s:2342   .debug_str:00000000000000ef .LASF15
     /tmp/ccnjDXQ6.s:2478   .debug_str:00000000000004db .LASF16
     /tmp/ccnjDXQ6.s:2352   .debug_str:0000000000000143 .LASF17
     /tmp/ccnjDXQ6.s:2460   .debug_str:0000000000000464 .LASF18
     /tmp/ccnjDXQ6.s:2374   .debug_str:00000000000001dc .LASF39
     /tmp/ccnjDXQ6.s:2396   .debug_str:000000000000028c .LASF103
     /tmp/ccnjDXQ6.s:2338   .debug_str:00000000000000cd .LASF104
     /tmp/ccnjDXQ6.s:2418   .debug_str:0000000000000328 .LASF105
     /tmp/ccnjDXQ6.s:2320   .debug_str:000000000000003d .LASF106
     /tmp/ccnjDXQ6.s:2358   .debug_str:0000000000000174 .LASF19
     /tmp/ccnjDXQ6.s:2472   .debug_str:00000000000004bf .LASF21
     /tmp/ccnjDXQ6.s:2454   .debug_str:0000000000000421 .LASF23
     /tmp/ccnjDXQ6.s:2384   .debug_str:000000000000021e .LASF25
     /tmp/ccnjDXQ6.s:2428   .debug_str:0000000000000360 .LASF20
     /tmp/ccnjDXQ6.s:2532   .debug_str:0000000000000731 .LASF22
     /tmp/ccnjDXQ6.s:2420   .debug_str:0000000000000332 .LASF24
     /tmp/ccnjDXQ6.s:2328   .debug_str:000000000000006d .LASF26
     /tmp/ccnjDXQ6.s:2410   .debug_str:00000000000002f0 .LASF27
GAS LISTING /tmp/ccnjDXQ6.s 			page 12


     /tmp/ccnjDXQ6.s:2448   .debug_str:00000000000003db .LASF28
     /tmp/ccnjDXQ6.s:2474   .debug_str:00000000000004cb .LASF107
     /tmp/ccnjDXQ6.s:2480   .debug_str:00000000000004f1 .LASF45
     /tmp/ccnjDXQ6.s:2432   .debug_str:0000000000000376 .LASF47
     /tmp/ccnjDXQ6.s:2362   .debug_str:0000000000000182 .LASF108
     /tmp/ccnjDXQ6.s:2434   .debug_str:0000000000000386 .LASF109
     /tmp/ccnjDXQ6.s:2404   .debug_str:00000000000002d8 .LASF29
     /tmp/ccnjDXQ6.s:2344   .debug_str:00000000000000fb .LASF30
     /tmp/ccnjDXQ6.s:2408   .debug_str:00000000000002e8 .LASF31
     /tmp/ccnjDXQ6.s:2444   .debug_str:00000000000003cb .LASF32
     /tmp/ccnjDXQ6.s:2402   .debug_str:00000000000002cf .LASF33
     /tmp/ccnjDXQ6.s:2414   .debug_str:0000000000000308 .LASF35
     /tmp/ccnjDXQ6.s:2390   .debug_str:0000000000000259 .LASF37
     /tmp/ccnjDXQ6.s:2518   .debug_str:00000000000006d3 .LASF34
     /tmp/ccnjDXQ6.s:2398   .debug_str:00000000000002a0 .LASF110
     /tmp/ccnjDXQ6.s:2442   .debug_str:00000000000003c2 .LASF36
     /tmp/ccnjDXQ6.s:2368   .debug_str:00000000000001a6 .LASF38
     /tmp/ccnjDXQ6.s:2488   .debug_str:0000000000000531 .LASF40
     /tmp/ccnjDXQ6.s:2412   .debug_str:00000000000002fd .LASF41
     /tmp/ccnjDXQ6.s:2392   .debug_str:0000000000000272 .LASF42
     /tmp/ccnjDXQ6.s:2370   .debug_str:00000000000001b9 .LASF43
     /tmp/ccnjDXQ6.s:2446   .debug_str:00000000000003d5 .LASF44
     /tmp/ccnjDXQ6.s:2476   .debug_str:00000000000004d0 .LASF46
     /tmp/ccnjDXQ6.s:2526   .debug_str:0000000000000706 .LASF48
     /tmp/ccnjDXQ6.s:2316   .debug_str:000000000000002e .LASF49
     /tmp/ccnjDXQ6.s:2500   .debug_str:0000000000000582 .LASF52
     /tmp/ccnjDXQ6.s:2360   .debug_str:0000000000000179 .LASF50
     /tmp/ccnjDXQ6.s:2348   .debug_str:0000000000000116 .LASF55
     /tmp/ccnjDXQ6.s:2490   .debug_str:0000000000000542 .LASF51
     /tmp/ccnjDXQ6.s:2470   .debug_str:00000000000004ac .LASF53
     /tmp/ccnjDXQ6.s:2508   .debug_str:00000000000005d4 .LASF54
     /tmp/ccnjDXQ6.s:2504   .debug_str:00000000000005af .LASF56
     /tmp/ccnjDXQ6.s:2378   .debug_str:0000000000000200 .LASF57
     /tmp/ccnjDXQ6.s:2354   .debug_str:0000000000000159 .LASF58
     /tmp/ccnjDXQ6.s:2310   .debug_str:0000000000000000 .LASF59
     /tmp/ccnjDXQ6.s:2492   .debug_str:0000000000000549 .LASF60
     /tmp/ccnjDXQ6.s:2364   .debug_str:000000000000018a .LASF61
     /tmp/ccnjDXQ6.s:2334   .debug_str:000000000000009d .LASF62
     /tmp/ccnjDXQ6.s:2530   .debug_str:0000000000000729 .LASF63
     /tmp/ccnjDXQ6.s:2366   .debug_str:0000000000000192 .LASF64
     /tmp/ccnjDXQ6.s:2440   .debug_str:00000000000003bb .LASF65
     /tmp/ccnjDXQ6.s:2522   .debug_str:00000000000006ee .LASF66
     /tmp/ccnjDXQ6.s:2324   .debug_str:000000000000004b .LASF67
     /tmp/ccnjDXQ6.s:2376   .debug_str:00000000000001ed .LASF68
     /tmp/ccnjDXQ6.s:2382   .debug_str:0000000000000218 .LASF69
     /tmp/ccnjDXQ6.s:2506   .debug_str:00000000000005c2 .LASF70
     /tmp/ccnjDXQ6.s:2322   .debug_str:0000000000000045 .LASF71
     /tmp/ccnjDXQ6.s:2536   .debug_str:0000000000000759 .LASF72
     /tmp/ccnjDXQ6.s:2528   .debug_str:000000000000071e .LASF73
     /tmp/ccnjDXQ6.s:2484   .debug_str:0000000000000507 .LASF74
     /tmp/ccnjDXQ6.s:2406   .debug_str:00000000000002dd .LASF75
     /tmp/ccnjDXQ6.s:2502   .debug_str:0000000000000597 .LASF76
     /tmp/ccnjDXQ6.s:2340   .debug_str:00000000000000e5 .LASF77
     /tmp/ccnjDXQ6.s:2458   .debug_str:000000000000044e .LASF78
     /tmp/ccnjDXQ6.s:2430   .debug_str:000000000000036c .LASF79
     /tmp/ccnjDXQ6.s:2388   .debug_str:0000000000000243 .LASF80
     /tmp/ccnjDXQ6.s:2494   .debug_str:000000000000055d .LASF81
GAS LISTING /tmp/ccnjDXQ6.s 			page 13


     /tmp/ccnjDXQ6.s:2336   .debug_str:00000000000000b1 .LASF82
     /tmp/ccnjDXQ6.s:2516   .debug_str:00000000000006be .LASF83
     /tmp/ccnjDXQ6.s:2456   .debug_str:000000000000042c .LASF84
     /tmp/ccnjDXQ6.s:2462   .debug_str:000000000000046e .LASF85
     /tmp/ccnjDXQ6.s:2416   .debug_str:0000000000000316 .LASF86
     /tmp/ccnjDXQ6.s:2312   .debug_str:0000000000000008 .LASF87
     /tmp/ccnjDXQ6.s:2534   .debug_str:0000000000000748 .LASF88
     /tmp/ccnjDXQ6.s:2326   .debug_str:0000000000000052 .LASF89
     /tmp/ccnjDXQ6.s:181    .text:0000000000000100 .LFB36
     /tmp/ccnjDXQ6.s:236    .text:000000000000015c .LFE36
     /tmp/ccnjDXQ6.s:211    .text:0000000000000138 .LBB11
     /tmp/ccnjDXQ6.s:219    .text:0000000000000140 .LBE11
     /tmp/ccnjDXQ6.s:2165   .debug_loc:0000000000000000 .LLST5
     /tmp/ccnjDXQ6.s:2173   .debug_loc:0000000000000024 .LLST6
     /tmp/ccnjDXQ6.s:197    .text:000000000000011c .LVL13
     /tmp/ccnjDXQ6.s:223    .text:0000000000000148 .LVL17
     /tmp/ccnjDXQ6.s:242    .text:000000000000015c .LFB35
     /tmp/ccnjDXQ6.s:306    .text:00000000000001c4 .LFE35
     /tmp/ccnjDXQ6.s:2180   .debug_loc:0000000000000047 .LLST7
     /tmp/ccnjDXQ6.s:260    .text:0000000000000178 .LBB13
     /tmp/ccnjDXQ6.s:267    .text:000000000000017c .LBE13
     /tmp/ccnjDXQ6.s:2191   .debug_loc:000000000000007d .LLST8
     /tmp/ccnjDXQ6.s:274    .text:0000000000000188 .LVL20
     /tmp/ccnjDXQ6.s:282    .text:00000000000001a0 .LVL21
     /tmp/ccnjDXQ6.s:303    .text:00000000000001c0 .LVL24
     /tmp/ccnjDXQ6.s:150    .text:00000000000000d8 .LFB34
     /tmp/ccnjDXQ6.s:175    .text:0000000000000100 .LFE34
     /tmp/ccnjDXQ6.s:164    .text:00000000000000f0 .LVL12
     /tmp/ccnjDXQ6.s:124    .text:00000000000000d8 .LFE33
     /tmp/ccnjDXQ6.s:2198   .debug_loc:00000000000000a0 .LLST0
     /tmp/ccnjDXQ6.s:2227   .debug_loc:0000000000000115 .LLST1
     /tmp/ccnjDXQ6.s:43     .text:0000000000000034 .LBB9
     /tmp/ccnjDXQ6.s:93     .text:00000000000000a0 .LBE9
     /tmp/ccnjDXQ6.s:2245   .debug_loc:0000000000000161 .LLST2
     /tmp/ccnjDXQ6.s:2259   .debug_loc:000000000000019a .LLST3
     /tmp/ccnjDXQ6.s:2284   .debug_loc:00000000000001fc .LLST4
     /tmp/ccnjDXQ6.s:55     .text:000000000000004c .LVL4
     /tmp/ccnjDXQ6.s:82     .text:0000000000000090 .LVL5
     /tmp/ccnjDXQ6.s:39     .text:0000000000000030 .LVL2
     /tmp/ccnjDXQ6.s:97     .text:00000000000000ac .LVL7
     /tmp/ccnjDXQ6.s:101    .text:00000000000000b8 .LVL8
     /tmp/ccnjDXQ6.s:2524   .debug_str:0000000000000701 .LASF90
     /tmp/ccnjDXQ6.s:2346   .debug_str:0000000000000101 .LASF111
     /tmp/ccnjDXQ6.s:2466   .debug_str:0000000000000491 .LASF91
     /tmp/ccnjDXQ6.s:2468   .debug_str:0000000000000497 .LASF112
     /tmp/ccnjDXQ6.s:2380   .debug_str:0000000000000208 .LASF113
     /tmp/ccnjDXQ6.s:2498   .debug_str:000000000000057c .LASF92
     /tmp/ccnjDXQ6.s:2482   .debug_str:00000000000004f7 .LASF94
     /tmp/ccnjDXQ6.s:2318   .debug_str:0000000000000037 .LASF93
     /tmp/ccnjDXQ6.s:2520   .debug_str:00000000000006e1 .LASF95
     /tmp/ccnjDXQ6.s:2424   .debug_str:000000000000034b .LASF96
     /tmp/ccnjDXQ6.s:2496   .debug_str:000000000000056c .LASF97
     /tmp/ccnjDXQ6.s:2394   .debug_str:000000000000027d .LASF98
     /tmp/ccnjDXQ6.s:2350   .debug_str:000000000000012b .LASF99
     /tmp/ccnjDXQ6.s:210    .text:0000000000000138 .LVL15
     /tmp/ccnjDXQ6.s:217    .text:0000000000000140 .LVL16
     /tmp/ccnjDXQ6.s:258    .text:0000000000000178 .LVL18
GAS LISTING /tmp/ccnjDXQ6.s 			page 14


     /tmp/ccnjDXQ6.s:292    .text:00000000000001ac .LVL22
     /tmp/ccnjDXQ6.s:296    .text:00000000000001b4 .LVL23
     /tmp/ccnjDXQ6.s:265    .text:000000000000017c .LVL19
     /tmp/ccnjDXQ6.s:16     .text:0000000000000000 .LVL0
     /tmp/ccnjDXQ6.s:36     .text:0000000000000028 .LVL1
     /tmp/ccnjDXQ6.s:91     .text:00000000000000a0 .LVL6
     /tmp/ccnjDXQ6.s:116    .text:00000000000000cc .LVL10
     /tmp/ccnjDXQ6.s:119    .text:00000000000000d0 .LVL11
     /tmp/ccnjDXQ6.s:42     .text:0000000000000034 .LVL3
     /tmp/ccnjDXQ6.s:113    .text:00000000000000c8 .LVL9
     /tmp/ccnjDXQ6.s:328    .debug_info:0000000000000000 .Ldebug_info0
     /tmp/ccnjDXQ6.s:127    .gcc_except_table:0000000000000000 .LLSDA33

UNDEFINED SYMBOLS
_Znwm
_Znam
_ZN9Scheduler3putEP3TCB
_ZdlPv
_Unwind_Resume
__gxx_personality_v0
_Z15thread_dispatchv
_ZN5Riscv10popSppSpieEv
_ZN9Scheduler3getEv
_ZN3TCB13contextSwitchEPNS_7ContextES1_
