GAS LISTING /tmp/ccVdehIl.s 			page 1


   1              		.file	"tcb.cpp"
   2              		.option pic
   3              		.option norelax
   4              		.text
   5              	.Ltext0:
   6              		.align	2
   7              		.globl	_ZN3TCB12createThreadEPFvPvES0_
   9              	_ZN3TCB12createThreadEPFvPvES0_:
  10              	.LFB38:
  11              		.file 1 "src/tcb.cpp"
   1:src/tcb.cpp   **** //
   2:src/tcb.cpp   **** // Created by marko on 20.4.22..
   3:src/tcb.cpp   **** //
   4:src/tcb.cpp   **** 
   5:src/tcb.cpp   **** #include "../h/tcb.hpp"
   6:src/tcb.cpp   **** #include "../h/riscv.hpp"
   7:src/tcb.cpp   **** #include "../h/syscall_c.hpp"
   8:src/tcb.cpp   **** 
   9:src/tcb.cpp   **** TCB *TCB::running = nullptr;
  10:src/tcb.cpp   **** 
  11:src/tcb.cpp   **** uint64 TCB::timeSliceCounter = 0;
  12:src/tcb.cpp   **** 
  13:src/tcb.cpp   **** 
  14:src/tcb.cpp   **** TCB *TCB::createThread(Body body, void* arg)
  15:src/tcb.cpp   **** {
  12              		.loc 1 15 1
  13              		.cfi_startproc
  14              		.cfi_personality 0x9b,DW.ref.__gxx_personality_v0
  15              		.cfi_lsda 0x1b,.LLSDA38
  16              	.LVL0:
  17 0000 130101FD 		addi	sp,sp,-48
  18              		.cfi_def_cfa_offset 48
  19 0004 23341102 		sd	ra,40(sp)
  20 0008 23308102 		sd	s0,32(sp)
  21 000c 233C9100 		sd	s1,24(sp)
  22 0010 23382101 		sd	s2,16(sp)
  23 0014 23343101 		sd	s3,8(sp)
  24              		.cfi_offset 1, -8
  25              		.cfi_offset 8, -16
  26              		.cfi_offset 9, -24
  27              		.cfi_offset 18, -32
  28              		.cfi_offset 19, -40
  29 0018 13040103 		addi	s0,sp,48
  30              		.cfi_def_cfa 8, 0
  31 001c 13090500 		mv	s2,a0
  32 0020 93890500 		mv	s3,a1
  16:src/tcb.cpp   ****     return new TCB(body,arg, TIME_SLICE);
  33              		.loc 1 16 5
  34              		.loc 1 16 40 is_stmt 0
  35 0024 13058005 		li	a0,88
  36              	.LVL1:
  37              	.LEHB0:
  38 0028 97000000 		call	_Znwm@plt
  38      E7800000 
  39              	.LVL2:
  40              	.LEHE0:
  41 0030 93040500 		mv	s1,a0
GAS LISTING /tmp/ccVdehIl.s 			page 2


  42              	.LVL3:
  43              	.LBB22:
  44              	.LBB23:
  45              		.file 2 "src/../h/tcb.hpp"
   1:src/../h/tcb.hpp **** //
   2:src/../h/tcb.hpp **** // Created by marko on 20.4.22..
   3:src/../h/tcb.hpp **** //
   4:src/../h/tcb.hpp **** 
   5:src/../h/tcb.hpp **** #ifndef OS1_VEZBE07_RISCV_CONTEXT_SWITCH_2_INTERRUPT_TCB_HPP
   6:src/../h/tcb.hpp **** #define OS1_VEZBE07_RISCV_CONTEXT_SWITCH_2_INTERRUPT_TCB_HPP
   7:src/../h/tcb.hpp **** 
   8:src/../h/tcb.hpp **** #include "../lib/hw.h"
   9:src/../h/tcb.hpp **** #include "scheduler.hpp"
  10:src/../h/tcb.hpp **** 
  11:src/../h/tcb.hpp **** // Thread Control Block
  12:src/../h/tcb.hpp **** class TCB
  13:src/../h/tcb.hpp **** {
  14:src/../h/tcb.hpp **** public:
  15:src/../h/tcb.hpp ****     ~TCB() { if (stack!= nullptr) delete[] stack; }
  16:src/../h/tcb.hpp **** 
  17:src/../h/tcb.hpp ****     bool isFinished() const { return finished; }
  18:src/../h/tcb.hpp **** 
  19:src/../h/tcb.hpp ****     void setFinished(bool value) { finished = value; }
  20:src/../h/tcb.hpp **** 
  21:src/../h/tcb.hpp ****     uint64 getTimeSlice() const { return timeSlice; }
  22:src/../h/tcb.hpp **** 
  23:src/../h/tcb.hpp ****     using Body = void (*)(void *);
  24:src/../h/tcb.hpp **** 
  25:src/../h/tcb.hpp ****     static TCB *createThread(Body body, void* arg);
  26:src/../h/tcb.hpp **** 
  27:src/../h/tcb.hpp ****     static void yield();
  28:src/../h/tcb.hpp **** 
  29:src/../h/tcb.hpp ****     void block (TCB* thread);
  30:src/../h/tcb.hpp **** 
  31:src/../h/tcb.hpp ****     void unblock ();
  32:src/../h/tcb.hpp **** 
  33:src/../h/tcb.hpp ****     static TCB *running;
  34:src/../h/tcb.hpp **** 
  35:src/../h/tcb.hpp **** private:
  36:src/../h/tcb.hpp ****     TCB(Body body, void* arg,uint64 timeSlice) :
  37:src/../h/tcb.hpp ****             arg(arg),
  38:src/../h/tcb.hpp ****             body(body),
  39:src/../h/tcb.hpp ****             stack(body != nullptr ? new uint64[STACK_SIZE] : nullptr),
  40:src/../h/tcb.hpp ****             context({(uint64) &threadWrapper,
  41:src/../h/tcb.hpp ****                      stack != nullptr ? (uint64) &stack[STACK_SIZE] : 0
  42:src/../h/tcb.hpp ****                     }),
  43:src/../h/tcb.hpp ****             timeSlice(timeSlice),
  44:src/../h/tcb.hpp ****             finished(false)
  46              		.loc 2 44 27
  47 0034 23303501 		sd	s3,0(a0)
  48 0038 23342501 		sd	s2,8(a0)
  39:src/../h/tcb.hpp ****             context({(uint64) &threadWrapper,
  49              		.loc 2 39 35
  50 003c 630A0900 		beqz	s2,.L6
  39:src/../h/tcb.hpp ****             context({(uint64) &threadWrapper,
  51              		.loc 2 39 58
  52 0040 37250000 		li	a0,8192
GAS LISTING /tmp/ccVdehIl.s 			page 3


  53              	.LEHB1:
  54 0044 97000000 		call	_Znam@plt
  54      E7800000 
  55              	.LVL4:
  56 004c 6F008000 		j	.L2
  57              	.L6:
  39:src/../h/tcb.hpp ****             context({(uint64) &threadWrapper,
  58              		.loc 2 39 35
  59 0050 13050000 		li	a0,0
  60              	.L2:
  61              		.loc 2 44 27
  62 0054 23B8A400 		sd	a0,16(s1)
  63 0058 97070000 		lla	a5,_ZN3TCB13threadWrapperEv
  63      93870700 
  64 0060 23BCF400 		sd	a5,24(s1)
  41:src/../h/tcb.hpp ****                     }),
  65              		.loc 2 41 39
  66 0064 63000504 		beqz	a0,.L7
  41:src/../h/tcb.hpp ****                     }),
  67              		.loc 2 41 50
  68 0068 B7270000 		li	a5,8192
  69 006c B307F500 		add	a5,a0,a5
  70              	.L3:
  71              		.loc 2 44 27
  72 0070 23B0F402 		sd	a5,32(s1)
  73 0074 93072000 		li	a5,2
  74 0078 23B4F402 		sd	a5,40(s1)
  75 007c 23880402 		sb	zero,48(s1)
  76              	.LVL5:
  77              	.LBB24:
  78              	.LBB25:
  79              		.file 3 "src/../h/list.hpp"
   1:src/../h/list.hpp **** //
   2:src/../h/list.hpp **** // Created by marko on 20.4.22..
   3:src/../h/list.hpp **** //
   4:src/../h/list.hpp **** 
   5:src/../h/list.hpp **** #ifndef OS1_VEZBE07_RISCV_CONTEXT_SWITCH_2_INTERRUPT_LIST_HPP
   6:src/../h/list.hpp **** #define OS1_VEZBE07_RISCV_CONTEXT_SWITCH_2_INTERRUPT_LIST_HPP
   7:src/../h/list.hpp **** 
   8:src/../h/list.hpp **** template<typename T>
   9:src/../h/list.hpp **** class List
  10:src/../h/list.hpp **** {
  11:src/../h/list.hpp **** private:
  12:src/../h/list.hpp ****     struct Elem
  13:src/../h/list.hpp ****     {
  14:src/../h/list.hpp ****         T *data;
  15:src/../h/list.hpp ****         Elem *next;
  16:src/../h/list.hpp **** 
  17:src/../h/list.hpp ****         Elem(T *data, Elem *next) : data(data), next(next) {}
  18:src/../h/list.hpp ****     };
  19:src/../h/list.hpp **** 
  20:src/../h/list.hpp ****     Elem *head, *tail;
  21:src/../h/list.hpp ****     Elem* iterator = nullptr;
  22:src/../h/list.hpp ****     int size=0;
  23:src/../h/list.hpp **** public:
  24:src/../h/list.hpp ****     List() : head(0), tail(0) {}
  80              		.loc 3 24 29
GAS LISTING /tmp/ccVdehIl.s 			page 4


  81 0080 23BC0402 		sd	zero,56(s1)
  82 0084 23B00404 		sd	zero,64(s1)
  83 0088 23B40404 		sd	zero,72(s1)
  84 008c 23A80404 		sw	zero,80(s1)
  85              	.LVL6:
  86              	.LBE25:
  87              	.LBE24:
  45:src/../h/tcb.hpp ****     {
  46:src/../h/tcb.hpp ****         if (body != nullptr) { Scheduler::put(this); }
  88              		.loc 2 46 9 is_stmt 1
  89 0090 630C0902 		beqz	s2,.L1
  90              		.loc 2 46 32
  91              		.loc 2 46 46 is_stmt 0
  92 0094 13850400 		mv	a0,s1
  93 0098 97000000 		call	_ZN9Scheduler3putEP3TCB@plt
  93      E7800000 
  94              	.LVL7:
  95              	.LEHE1:
  96 00a0 6F008002 		j	.L1
  97              	.L7:
  41:src/../h/tcb.hpp ****                     }),
  98              		.loc 2 41 39
  99 00a4 93070000 		li	a5,0
 100 00a8 6FF09FFC 		j	.L3
 101              	.L8:
 102 00ac 13090500 		mv	s2,a0
 103              	.LVL8:
 104              	.LBE23:
 105              	.LBE22:
 106              		.loc 1 16 40
 107 00b0 13850400 		mv	a0,s1
 108 00b4 97000000 		call	_ZdlPv@plt
 108      E7800000 
 109              	.LVL9:
 110 00bc 13050900 		mv	a0,s2
 111              	.LEHB2:
 112 00c0 97000000 		call	_Unwind_Resume@plt
 112      E7800000 
 113              	.LVL10:
 114              	.LEHE2:
 115              	.L1:
  17:src/tcb.cpp   **** }
 116              		.loc 1 17 1
 117 00c8 13850400 		mv	a0,s1
 118 00cc 83308102 		ld	ra,40(sp)
 119              		.cfi_restore 1
 120 00d0 03340102 		ld	s0,32(sp)
 121              		.cfi_restore 8
 122              		.cfi_def_cfa 2, 48
 123 00d4 83348101 		ld	s1,24(sp)
 124              		.cfi_restore 9
 125              	.LVL11:
 126 00d8 03390101 		ld	s2,16(sp)
 127              		.cfi_restore 18
 128              	.LVL12:
 129 00dc 83398100 		ld	s3,8(sp)
 130              		.cfi_restore 19
GAS LISTING /tmp/ccVdehIl.s 			page 5


 131              	.LVL13:
 132 00e0 13010103 		addi	sp,sp,48
 133              		.cfi_def_cfa_offset 0
 134 00e4 67800000 		jr	ra
 135              		.cfi_endproc
 136              	.LFE38:
 137              		.globl	__gxx_personality_v0
 138              		.section	.gcc_except_table,"a",@progbits
 139              	.LLSDA38:
 140 0000 FF       		.byte	0xff
 141 0001 FF       		.byte	0xff
 142 0002 03       		.byte	0x3
 143 0003 27       		.byte	0x27
 144 0004 00000000 		.4byte	.LEHB0-.LFB38
 145 0008 00000000 		.4byte	.LEHE0-.LEHB0
 146 000c 00000000 		.4byte	0
 147 0010 00       		.byte	0
 148 0011 00000000 		.4byte	.LEHB1-.LFB38
 149 0015 00000000 		.4byte	.LEHE1-.LEHB1
 150 0019 00000000 		.4byte	.L8-.LFB38
 151 001d 00       		.byte	0
 152 001e 00000000 		.4byte	.LEHB2-.LFB38
 153 0022 00000000 		.4byte	.LEHE2-.LEHB2
 154 0026 00000000 		.4byte	0
 155 002a 00       		.byte	0
 156              		.text
 158              		.align	2
 159              		.globl	_ZN3TCB5yieldEv
 161              	_ZN3TCB5yieldEv:
 162              	.LFB39:
  18:src/tcb.cpp   **** 
  19:src/tcb.cpp   **** void TCB::yield()
  20:src/tcb.cpp   **** {
 163              		.loc 1 20 1 is_stmt 1
 164              		.cfi_startproc
 165 00e8 130101FF 		addi	sp,sp,-16
 166              		.cfi_def_cfa_offset 16
 167 00ec 23341100 		sd	ra,8(sp)
 168 00f0 23308100 		sd	s0,0(sp)
 169              		.cfi_offset 1, -8
 170              		.cfi_offset 8, -16
 171 00f4 13040101 		addi	s0,sp,16
 172              		.cfi_def_cfa 8, 0
  21:src/tcb.cpp   ****     thread_dispatch();
 173              		.loc 1 21 5
 174              		.loc 1 21 20 is_stmt 0
 175 00f8 97000000 		call	_Z15thread_dispatchv@plt
 175      E7800000 
 176              	.LVL14:
  22:src/tcb.cpp   **** }
 177              		.loc 1 22 1
 178 0100 83308100 		ld	ra,8(sp)
 179              		.cfi_restore 1
 180 0104 03340100 		ld	s0,0(sp)
 181              		.cfi_restore 8
 182              		.cfi_def_cfa 2, 16
 183 0108 13010101 		addi	sp,sp,16
GAS LISTING /tmp/ccVdehIl.s 			page 6


 184              		.cfi_def_cfa_offset 0
 185 010c 67800000 		jr	ra
 186              		.cfi_endproc
 187              	.LFE39:
 189              		.align	2
 190              		.globl	_ZN3TCB8dispatchEv
 192              	_ZN3TCB8dispatchEv:
 193              	.LFB40:
  23:src/tcb.cpp   **** 
  24:src/tcb.cpp   **** void TCB::dispatch()
  25:src/tcb.cpp   **** {
 194              		.loc 1 25 1 is_stmt 1
 195              		.cfi_startproc
 196 0110 130101FE 		addi	sp,sp,-32
 197              		.cfi_def_cfa_offset 32
 198 0114 233C1100 		sd	ra,24(sp)
 199 0118 23388100 		sd	s0,16(sp)
 200 011c 23349100 		sd	s1,8(sp)
 201              		.cfi_offset 1, -8
 202              		.cfi_offset 8, -16
 203              		.cfi_offset 9, -24
 204 0120 13040102 		addi	s0,sp,32
 205              		.cfi_def_cfa 8, 0
  26:src/tcb.cpp   ****     TCB *old = running;
 206              		.loc 1 26 5
 207              		.loc 1 26 10 is_stmt 0
 208 0124 97040000 		ld	s1,.LANCHOR0
 208      83B40400 
 209              	.LVL15:
  27:src/tcb.cpp   ****     if (!old->isFinished()) { Scheduler::put(old); }
 210              		.loc 1 27 5 is_stmt 1
 211              	.LBB26:
 212              	.LBB27:
  17:src/../h/tcb.hpp **** 
 213              		.loc 2 17 31
  17:src/../h/tcb.hpp **** 
 214              		.loc 2 17 38 is_stmt 0
 215 012c 83C70403 		lbu	a5,48(s1)
 216              	.LVL16:
 217              	.LBE27:
 218              	.LBE26:
 219              		.loc 1 27 5
 220 0130 638C0702 		beqz	a5,.L15
 221              	.L13:
  28:src/tcb.cpp   ****     running = Scheduler::get();
 222              		.loc 1 28 5 is_stmt 1
 223              		.loc 1 28 29 is_stmt 0
 224 0134 97000000 		call	_ZN9Scheduler3getEv@plt
 224      E7800000 
 225              	.LVL17:
 226              		.loc 1 28 13
 227 013c 97070000 		sd	a0,.LANCHOR0,a5
 227      23B0A700 
  29:src/tcb.cpp   **** 
  30:src/tcb.cpp   ****     TCB::contextSwitch(&old->context, &running->context);
 228              		.loc 1 30 5 is_stmt 1
 229              		.loc 1 30 23 is_stmt 0
GAS LISTING /tmp/ccVdehIl.s 			page 7


 230 0144 93058501 		addi	a1,a0,24
 231 0148 13858401 		addi	a0,s1,24
 232 014c 97000000 		call	_ZN3TCB13contextSwitchEPNS_7ContextES1_@plt
 232      E7800000 
 233              	.LVL18:
  31:src/tcb.cpp   **** 
  32:src/tcb.cpp   **** 
  33:src/tcb.cpp   **** }
 234              		.loc 1 33 1
 235 0154 83308101 		ld	ra,24(sp)
 236              		.cfi_remember_state
 237              		.cfi_restore 1
 238 0158 03340101 		ld	s0,16(sp)
 239              		.cfi_restore 8
 240              		.cfi_def_cfa 2, 32
 241 015c 83348100 		ld	s1,8(sp)
 242              		.cfi_restore 9
 243              	.LVL19:
 244 0160 13010102 		addi	sp,sp,32
 245              		.cfi_def_cfa_offset 0
 246 0164 67800000 		jr	ra
 247              	.LVL20:
 248              	.L15:
 249              		.cfi_restore_state
  27:src/tcb.cpp   ****     running = Scheduler::get();
 250              		.loc 1 27 31 is_stmt 1 discriminator 1
  27:src/tcb.cpp   ****     running = Scheduler::get();
 251              		.loc 1 27 45 is_stmt 0 discriminator 1
 252 0168 13850400 		mv	a0,s1
 253 016c 97000000 		call	_ZN9Scheduler3putEP3TCB@plt
 253      E7800000 
 254              	.LVL21:
 255 0174 6FF01FFC 		j	.L13
 256              		.cfi_endproc
 257              	.LFE40:
 259              		.align	2
 260              		.globl	_ZN3TCB5blockEPS_
 262              	_ZN3TCB5blockEPS_:
 263              	.LFB42:
  34:src/tcb.cpp   **** 
  35:src/tcb.cpp   **** void TCB::threadWrapper()
  36:src/tcb.cpp   **** {
  37:src/tcb.cpp   ****     Riscv::popSppSpie();
  38:src/tcb.cpp   ****     running->body(running->arg);
  39:src/tcb.cpp   ****     running->setFinished(true);
  40:src/tcb.cpp   ****     running->unblock();
  41:src/tcb.cpp   ****     TCB::yield();
  42:src/tcb.cpp   **** }
  43:src/tcb.cpp   **** 
  44:src/tcb.cpp   **** void TCB::block(TCB *thread) {
 264              		.loc 1 44 30 is_stmt 1
 265              		.cfi_startproc
 266              	.LVL22:
 267 0178 130101FD 		addi	sp,sp,-48
 268              		.cfi_def_cfa_offset 48
 269 017c 23341102 		sd	ra,40(sp)
 270 0180 23308102 		sd	s0,32(sp)
GAS LISTING /tmp/ccVdehIl.s 			page 8


 271 0184 233C9100 		sd	s1,24(sp)
 272 0188 23382101 		sd	s2,16(sp)
 273 018c 23343101 		sd	s3,8(sp)
 274              		.cfi_offset 1, -8
 275              		.cfi_offset 8, -16
 276              		.cfi_offset 9, -24
 277              		.cfi_offset 18, -32
 278              		.cfi_offset 19, -40
 279 0190 13040103 		addi	s0,sp,48
 280              		.cfi_def_cfa 8, 0
 281 0194 13090500 		mv	s2,a0
 282 0198 93890500 		mv	s3,a1
  45:src/tcb.cpp   **** 
  46:src/tcb.cpp   ****     blockedQueue.addLast(thread);
 283              		.loc 1 46 5
 284              		.loc 1 46 25 is_stmt 0
 285 019c 93048503 		addi	s1,a0,56
 286              	.LVL23:
 287              	.LBB33:
 288              	.LBB34:
  25:src/../h/list.hpp **** 
  26:src/../h/list.hpp ****     List(const List<T> &) = delete;
  27:src/../h/list.hpp **** 
  28:src/../h/list.hpp ****     List<T> &operator=(const List<T> &) = delete;
  29:src/../h/list.hpp **** 
  30:src/../h/list.hpp ****     void first () {
  31:src/../h/list.hpp ****         iterator=head;
  32:src/../h/list.hpp ****     }
  33:src/../h/list.hpp ****     int next () {
  34:src/../h/list.hpp ****         if (iterator==tail){
  35:src/../h/list.hpp ****             return -1;
  36:src/../h/list.hpp ****         }
  37:src/../h/list.hpp ****         iterator=iterator->next;
  38:src/../h/list.hpp ****         return 0;
  39:src/../h/list.hpp ****     }
  40:src/../h/list.hpp ****     T* getIter(){
  41:src/../h/list.hpp ****         return  iterator->data;
  42:src/../h/list.hpp ****     }
  43:src/../h/list.hpp **** 
  44:src/../h/list.hpp ****     void removeIter(){
  45:src/../h/list.hpp **** 
  46:src/../h/list.hpp ****     }
  47:src/../h/list.hpp ****     void addFirst(T *data)
  48:src/../h/list.hpp ****     {
  49:src/../h/list.hpp ****         Elem *elem = new Elem(data, head);
  50:src/../h/list.hpp ****         head = elem;
  51:src/../h/list.hpp ****         iterator = elem;
  52:src/../h/list.hpp ****         if (!tail) { tail = head; }
  53:src/../h/list.hpp ****         size++;
  54:src/../h/list.hpp ****     }
  55:src/../h/list.hpp **** 
  56:src/../h/list.hpp ****     void addLast(T *data)
  57:src/../h/list.hpp ****     {
  58:src/../h/list.hpp ****         Elem *elem = new Elem(data, 0);
 289              		.loc 3 58 22
 290 01a0 13050001 		li	a0,16
 291              	.LVL24:
GAS LISTING /tmp/ccVdehIl.s 			page 9


 292 01a4 97000000 		call	_Znwm@plt
 292      E7800000 
 293              	.LVL25:
 294              	.LBB35:
 295              	.LBB36:
  17:src/../h/list.hpp ****     };
 296              		.loc 3 17 58
 297 01ac 23303501 		sd	s3,0(a0)
 298 01b0 23340500 		sd	zero,8(a0)
 299              	.LVL26:
 300              	.LBE36:
 301              	.LBE35:
  59:src/../h/list.hpp ****         if (tail)
 302              		.loc 3 59 13
 303 01b4 83B78400 		ld	a5,8(s1)
 304              		.loc 3 59 9
 305 01b8 638A0702 		beqz	a5,.L17
  60:src/../h/list.hpp ****         {
  61:src/../h/list.hpp ****             tail->next = elem;
 306              		.loc 3 61 13
 307 01bc 23B4A700 		sd	a0,8(a5)
  62:src/../h/list.hpp ****             tail = elem;
 308              		.loc 3 62 13
 309 01c0 23B4A400 		sd	a0,8(s1)
 310              	.L18:
  63:src/../h/list.hpp ****         } else
  64:src/../h/list.hpp ****         {
  65:src/../h/list.hpp ****             head = tail = elem;
  66:src/../h/list.hpp ****         }
  67:src/../h/list.hpp ****         size++;
 311              		.loc 3 67 9
 312 01c4 83A78401 		lw	a5,24(s1)
 313 01c8 9B871700 		addiw	a5,a5,1
 314 01cc 23ACF400 		sw	a5,24(s1)
 315              	.LVL27:
 316              	.LBE34:
 317              	.LBE33:
  47:src/tcb.cpp   **** }
 318              		.loc 1 47 1
 319 01d0 83308102 		ld	ra,40(sp)
 320              		.cfi_remember_state
 321              		.cfi_restore 1
 322 01d4 03340102 		ld	s0,32(sp)
 323              		.cfi_restore 8
 324              		.cfi_def_cfa 2, 48
 325 01d8 83348101 		ld	s1,24(sp)
 326              		.cfi_restore 9
 327 01dc 03390101 		ld	s2,16(sp)
 328              		.cfi_restore 18
 329              	.LVL28:
 330 01e0 83398100 		ld	s3,8(sp)
 331              		.cfi_restore 19
 332              	.LVL29:
 333 01e4 13010103 		addi	sp,sp,48
 334              		.cfi_def_cfa_offset 0
 335 01e8 67800000 		jr	ra
 336              	.LVL30:
GAS LISTING /tmp/ccVdehIl.s 			page 10


 337              	.L17:
 338              		.cfi_restore_state
 339              	.LBB38:
 340              	.LBB37:
  65:src/../h/list.hpp ****         }
 341              		.loc 3 65 13
 342 01ec 23B4A400 		sd	a0,8(s1)
 343 01f0 233CA902 		sd	a0,56(s2)
 344 01f4 6FF01FFD 		j	.L18
 345              	.LBE37:
 346              	.LBE38:
 347              		.cfi_endproc
 348              	.LFE42:
 350              		.align	2
 351              		.globl	_ZN3TCB7unblockEv
 353              	_ZN3TCB7unblockEv:
 354              	.LFB43:
  48:src/tcb.cpp   **** 
  49:src/tcb.cpp   **** void TCB::unblock() {
 355              		.loc 1 49 21 is_stmt 1
 356              		.cfi_startproc
 357              	.LVL31:
 358 01f8 130101FD 		addi	sp,sp,-48
 359              		.cfi_def_cfa_offset 48
 360 01fc 23341102 		sd	ra,40(sp)
 361 0200 23308102 		sd	s0,32(sp)
 362 0204 233C9100 		sd	s1,24(sp)
 363 0208 23382101 		sd	s2,16(sp)
 364 020c 23343101 		sd	s3,8(sp)
 365              		.cfi_offset 1, -8
 366              		.cfi_offset 8, -16
 367              		.cfi_offset 9, -24
 368              		.cfi_offset 18, -32
 369              		.cfi_offset 19, -40
 370 0210 13040103 		addi	s0,sp,48
 371              		.cfi_def_cfa 8, 0
 372 0214 93040500 		mv	s1,a0
 373 0218 6F00C002 		j	.L24
 374              	.LVL32:
 375              	.L27:
 376              	.LBB44:
 377              	.LBB45:
 378              	.LBB46:
  68:src/../h/list.hpp ****     }
  69:src/../h/list.hpp **** 
  70:src/../h/list.hpp ****     T *removeFirst()
  71:src/../h/list.hpp ****     {
  72:src/../h/list.hpp ****         if (!head) { return 0; }
  73:src/../h/list.hpp **** 
  74:src/../h/list.hpp ****         Elem *elem = head;
  75:src/../h/list.hpp ****         head = head->next;
  76:src/../h/list.hpp ****         if (!head) { tail = 0; }
 379              		.loc 3 76 22 is_stmt 0
 380 021c 23340900 		sd	zero,8(s2)
 381              	.L23:
  77:src/../h/list.hpp **** 
  78:src/../h/list.hpp ****         T *ret = elem->data;
GAS LISTING /tmp/ccVdehIl.s 			page 11


 382              		.loc 3 78 12
 383 0220 83390500 		ld	s3,0(a0)
 384              	.LVL33:
  79:src/../h/list.hpp ****         delete elem;
 385              		.loc 3 79 9
 386 0224 97000000 		call	_ZdlPv@plt
 386      E7800000 
 387              	.LVL34:
  80:src/../h/list.hpp ****         size--;
 388              		.loc 3 80 9
 389 022c 83278901 		lw	a5,24(s2)
 390 0230 9B87F7FF 		addiw	a5,a5,-1
 391 0234 232CF900 		sw	a5,24(s2)
 392              	.LVL35:
 393              	.L22:
 394              	.LBE46:
 395              	.LBE45:
  50:src/tcb.cpp   ****     while(blockedQueue.getSize()>0){
  51:src/tcb.cpp   ****         TCB* t=blockedQueue.removeFirst();
  52:src/tcb.cpp   ****         Scheduler::put(t);
 396              		.loc 1 52 9 is_stmt 1
 397              		.loc 1 52 23 is_stmt 0
 398 0238 13850900 		mv	a0,s3
 399 023c 97000000 		call	_ZN9Scheduler3putEP3TCB@plt
 399      E7800000 
 400              	.LVL36:
 401              	.L24:
 402              	.LBE44:
  50:src/tcb.cpp   ****     while(blockedQueue.getSize()>0){
 403              		.loc 1 50 5 is_stmt 1
  50:src/tcb.cpp   ****     while(blockedQueue.getSize()>0){
 404              		.loc 1 50 33
 405              	.LBB49:
 406              	.LBB50:
  81:src/../h/list.hpp ****         return ret;
  82:src/../h/list.hpp ****     }
  83:src/../h/list.hpp **** 
  84:src/../h/list.hpp ****     T *peekFirst()
  85:src/../h/list.hpp ****     {
  86:src/../h/list.hpp ****         if (!head) { return 0; }
  87:src/../h/list.hpp ****         return head->data;
  88:src/../h/list.hpp ****     }
  89:src/../h/list.hpp **** 
  90:src/../h/list.hpp ****     T *removeLast()
  91:src/../h/list.hpp ****     {
  92:src/../h/list.hpp ****         if (!head) { return 0; }
  93:src/../h/list.hpp **** 
  94:src/../h/list.hpp ****         Elem *prev = 0;
  95:src/../h/list.hpp ****         for (Elem *curr = head; curr && curr != tail; curr = curr->next)
  96:src/../h/list.hpp ****         {
  97:src/../h/list.hpp ****             prev = curr;
  98:src/../h/list.hpp ****         }
  99:src/../h/list.hpp **** 
 100:src/../h/list.hpp ****         Elem *elem = tail;
 101:src/../h/list.hpp ****         if (prev) { prev->next = 0; }
 102:src/../h/list.hpp ****         else { head = 0; }
 103:src/../h/list.hpp ****         tail = prev;
GAS LISTING /tmp/ccVdehIl.s 			page 12


 104:src/../h/list.hpp **** 
 105:src/../h/list.hpp ****         T *ret = elem->data;
 106:src/../h/list.hpp ****         delete elem;
 107:src/../h/list.hpp ****         size--;
 108:src/../h/list.hpp ****         return ret;
 109:src/../h/list.hpp ****     }
 110:src/../h/list.hpp **** 
 111:src/../h/list.hpp ****     T *peekLast()
 112:src/../h/list.hpp ****     {
 113:src/../h/list.hpp ****         if (!tail) { return 0; }
 114:src/../h/list.hpp ****         return tail->data;
 115:src/../h/list.hpp ****     }
 116:src/../h/list.hpp **** 
 117:src/../h/list.hpp ****     int getSize(){return size;}
 407              		.loc 3 117 26 is_stmt 0
 408 0244 83A70405 		lw	a5,80(s1)
 409              	.LVL37:
 410              	.LBE50:
 411              	.LBE49:
  50:src/tcb.cpp   ****     while(blockedQueue.getSize()>0){
 412              		.loc 1 50 33
 413 0248 6354F002 		blez	a5,.L20
 414              	.LBB51:
  51:src/tcb.cpp   ****         Scheduler::put(t);
 415              		.loc 1 51 9 is_stmt 1
  51:src/tcb.cpp   ****         Scheduler::put(t);
 416              		.loc 1 51 40 is_stmt 0
 417 024c 13898403 		addi	s2,s1,56
 418              	.LVL38:
 419              	.LBB48:
 420              	.LBB47:
  72:src/../h/list.hpp **** 
 421              		.loc 3 72 14
 422 0250 03B58403 		ld	a0,56(s1)
  72:src/../h/list.hpp **** 
 423              		.loc 3 72 9
 424 0254 630A0500 		beqz	a0,.L25
 425              	.LVL39:
  75:src/../h/list.hpp ****         if (!head) { tail = 0; }
 426              		.loc 3 75 22
 427 0258 83378500 		ld	a5,8(a0)
  75:src/../h/list.hpp ****         if (!head) { tail = 0; }
 428              		.loc 3 75 9
 429 025c 23BCF402 		sd	a5,56(s1)
  76:src/../h/list.hpp **** 
 430              		.loc 3 76 9
 431 0260 E39007FC 		bnez	a5,.L23
 432 0264 6FF09FFB 		j	.L27
 433              	.LVL40:
 434              	.L25:
  72:src/../h/list.hpp **** 
 435              		.loc 3 72 29
 436 0268 93090500 		mv	s3,a0
 437 026c 6FF0DFFC 		j	.L22
 438              	.LVL41:
 439              	.L20:
 440              	.LBE47:
GAS LISTING /tmp/ccVdehIl.s 			page 13


 441              	.LBE48:
 442              	.LBE51:
  53:src/tcb.cpp   ****     }
  54:src/tcb.cpp   **** 
  55:src/tcb.cpp   **** }
 443              		.loc 1 55 1
 444 0270 83308102 		ld	ra,40(sp)
 445              		.cfi_restore 1
 446 0274 03340102 		ld	s0,32(sp)
 447              		.cfi_restore 8
 448              		.cfi_def_cfa 2, 48
 449 0278 83348101 		ld	s1,24(sp)
 450              		.cfi_restore 9
 451              	.LVL42:
 452 027c 03390101 		ld	s2,16(sp)
 453              		.cfi_restore 18
 454 0280 83398100 		ld	s3,8(sp)
 455              		.cfi_restore 19
 456 0284 13010103 		addi	sp,sp,48
 457              		.cfi_def_cfa_offset 0
 458 0288 67800000 		jr	ra
 459              		.cfi_endproc
 460              	.LFE43:
 462              		.align	2
 463              		.globl	_ZN3TCB13threadWrapperEv
 465              	_ZN3TCB13threadWrapperEv:
 466              	.LFB41:
  36:src/tcb.cpp   ****     Riscv::popSppSpie();
 467              		.loc 1 36 1 is_stmt 1
 468              		.cfi_startproc
 469 028c 130101FE 		addi	sp,sp,-32
 470              		.cfi_def_cfa_offset 32
 471 0290 233C1100 		sd	ra,24(sp)
 472 0294 23388100 		sd	s0,16(sp)
 473 0298 23349100 		sd	s1,8(sp)
 474              		.cfi_offset 1, -8
 475              		.cfi_offset 8, -16
 476              		.cfi_offset 9, -24
 477 029c 13040102 		addi	s0,sp,32
 478              		.cfi_def_cfa 8, 0
  37:src/tcb.cpp   ****     running->body(running->arg);
 479              		.loc 1 37 5
  37:src/tcb.cpp   ****     running->body(running->arg);
 480              		.loc 1 37 22 is_stmt 0
 481 02a0 97000000 		call	_ZN5Riscv10popSppSpieEv@plt
 481      E7800000 
 482              	.LVL43:
  38:src/tcb.cpp   ****     running->setFinished(true);
 483              		.loc 1 38 5 is_stmt 1
  38:src/tcb.cpp   ****     running->setFinished(true);
 484              		.loc 1 38 14 is_stmt 0
 485 02a8 97040000 		lla	s1,.LANCHOR0
 485      93840400 
 486 02b0 83B70400 		ld	a5,0(s1)
 487 02b4 03B78700 		ld	a4,8(a5)
  38:src/tcb.cpp   ****     running->setFinished(true);
 488              		.loc 1 38 18
GAS LISTING /tmp/ccVdehIl.s 			page 14


 489 02b8 03B50700 		ld	a0,0(a5)
 490 02bc E7000700 		jalr	a4
 491              	.LVL44:
  39:src/tcb.cpp   ****     running->unblock();
 492              		.loc 1 39 5 is_stmt 1
  39:src/tcb.cpp   ****     running->unblock();
 493              		.loc 1 39 25 is_stmt 0
 494 02c0 03B50400 		ld	a0,0(s1)
 495              	.LVL45:
 496              	.LBB52:
 497              	.LBB53:
  19:src/../h/tcb.hpp **** 
 498              		.loc 2 19 36 is_stmt 1
  19:src/../h/tcb.hpp **** 
 499              		.loc 2 19 45 is_stmt 0
 500 02c4 93071000 		li	a5,1
 501 02c8 2308F502 		sb	a5,48(a0)
 502              	.LVL46:
 503              	.LBE53:
 504              	.LBE52:
  40:src/tcb.cpp   ****     TCB::yield();
 505              		.loc 1 40 5 is_stmt 1
  40:src/tcb.cpp   ****     TCB::yield();
 506              		.loc 1 40 21 is_stmt 0
 507 02cc 97000000 		call	_ZN3TCB7unblockEv
 507      E7800000 
 508              	.LVL47:
  41:src/tcb.cpp   **** }
 509              		.loc 1 41 5 is_stmt 1
  41:src/tcb.cpp   **** }
 510              		.loc 1 41 15 is_stmt 0
 511 02d4 97000000 		call	_ZN3TCB5yieldEv
 511      E7800000 
 512              	.LVL48:
  42:src/tcb.cpp   **** 
 513              		.loc 1 42 1
 514 02dc 83308101 		ld	ra,24(sp)
 515              		.cfi_restore 1
 516 02e0 03340101 		ld	s0,16(sp)
 517              		.cfi_restore 8
 518              		.cfi_def_cfa 2, 32
 519 02e4 83348100 		ld	s1,8(sp)
 520              		.cfi_restore 9
 521 02e8 13010102 		addi	sp,sp,32
 522              		.cfi_def_cfa_offset 0
 523 02ec 67800000 		jr	ra
 524              		.cfi_endproc
 525              	.LFE41:
 527              		.globl	_ZN3TCB16timeSliceCounterE
 528              		.globl	_ZN3TCB7runningE
 529              		.bss
 530              		.align	3
 531              		.set	.LANCHOR0,. + 0
 534              	_ZN3TCB7runningE:
 535 0000 00000000 		.zero	8
 535      00000000 
 538              	_ZN3TCB16timeSliceCounterE:
GAS LISTING /tmp/ccVdehIl.s 			page 15


 539 0008 00000000 		.zero	8
 539      00000000 
 540              		.text
 541              	.Letext0:
 542              		.file 4 "src/../h/../lib/hw.h"
 543              		.file 5 "src/../h/scheduler.hpp"
 544              		.file 6 "src/../h/riscv.hpp"
 545              		.file 7 "src/../h/syscall_c.hpp"
 3865              		.align	3
 3868              	DW.ref.__gxx_personality_v0:
 3869 0000 00000000 		.dword	__gxx_personality_v0
 3869      00000000 
 3870              		.ident	"GCC: (Ubuntu 9.4.0-1ubuntu1~20.04) 9.4.0"
 3871              		.section	.note.GNU-stack,"",@progbits
GAS LISTING /tmp/ccVdehIl.s 			page 16


DEFINED SYMBOLS
                            *ABS*:0000000000000000 tcb.cpp
     /tmp/ccVdehIl.s:9      .text:0000000000000000 _ZN3TCB12createThreadEPFvPvES0_
     /tmp/ccVdehIl.s:13     .text:0000000000000000 .L0 
     /tmp/ccVdehIl.s:3868   .data.rel.local.DW.ref.__gxx_personality_v0:0000000000000000 DW.ref.__gxx_personality_v0
     /tmp/ccVdehIl.s:17     .text:0000000000000000 .L0 
     /tmp/ccVdehIl.s:18     .text:0000000000000004 .L0 
     /tmp/ccVdehIl.s:24     .text:0000000000000018 .L0 
     /tmp/ccVdehIl.s:25     .text:0000000000000018 .L0 
     /tmp/ccVdehIl.s:26     .text:0000000000000018 .L0 
     /tmp/ccVdehIl.s:27     .text:0000000000000018 .L0 
     /tmp/ccVdehIl.s:28     .text:0000000000000018 .L0 
     /tmp/ccVdehIl.s:30     .text:000000000000001c .L0 
     /tmp/ccVdehIl.s:34     .text:0000000000000024 .L0 
     /tmp/ccVdehIl.s:35     .text:0000000000000024 .L0 
     /tmp/ccVdehIl.s:47     .text:0000000000000034 .L0 
     /tmp/ccVdehIl.s:50     .text:000000000000003c .L0 
     /tmp/ccVdehIl.s:52     .text:0000000000000040 .L0 
     /tmp/ccVdehIl.s:59     .text:0000000000000050 .L0 
     /tmp/ccVdehIl.s:62     .text:0000000000000054 .L0 
     /tmp/ccVdehIl.s:465    .text:000000000000028c _ZN3TCB13threadWrapperEv
     /tmp/ccVdehIl.s:66     .text:0000000000000064 .L0 
     /tmp/ccVdehIl.s:68     .text:0000000000000068 .L0 
     /tmp/ccVdehIl.s:72     .text:0000000000000070 .L0 
     /tmp/ccVdehIl.s:81     .text:0000000000000080 .L0 
     /tmp/ccVdehIl.s:89     .text:0000000000000090 .L0 
     /tmp/ccVdehIl.s:91     .text:0000000000000094 .L0 
     /tmp/ccVdehIl.s:92     .text:0000000000000094 .L0 
     /tmp/ccVdehIl.s:99     .text:00000000000000a4 .L0 
     /tmp/ccVdehIl.s:107    .text:00000000000000b0 .L0 
     /tmp/ccVdehIl.s:117    .text:00000000000000c8 .L0 
     /tmp/ccVdehIl.s:119    .text:00000000000000d0 .L0 
     /tmp/ccVdehIl.s:121    .text:00000000000000d4 .L0 
     /tmp/ccVdehIl.s:122    .text:00000000000000d4 .L0 
     /tmp/ccVdehIl.s:124    .text:00000000000000d8 .L0 
     /tmp/ccVdehIl.s:127    .text:00000000000000dc .L0 
     /tmp/ccVdehIl.s:130    .text:00000000000000e0 .L0 
     /tmp/ccVdehIl.s:133    .text:00000000000000e4 .L0 
     /tmp/ccVdehIl.s:135    .text:00000000000000e8 .L0 
     /tmp/ccVdehIl.s:161    .text:00000000000000e8 _ZN3TCB5yieldEv
     /tmp/ccVdehIl.s:164    .text:00000000000000e8 .L0 
     /tmp/ccVdehIl.s:165    .text:00000000000000e8 .L0 
     /tmp/ccVdehIl.s:166    .text:00000000000000ec .L0 
     /tmp/ccVdehIl.s:169    .text:00000000000000f4 .L0 
     /tmp/ccVdehIl.s:170    .text:00000000000000f4 .L0 
     /tmp/ccVdehIl.s:172    .text:00000000000000f8 .L0 
     /tmp/ccVdehIl.s:174    .text:00000000000000f8 .L0 
     /tmp/ccVdehIl.s:175    .text:00000000000000f8 .L0 
     /tmp/ccVdehIl.s:178    .text:0000000000000100 .L0 
     /tmp/ccVdehIl.s:179    .text:0000000000000104 .L0 
     /tmp/ccVdehIl.s:181    .text:0000000000000108 .L0 
     /tmp/ccVdehIl.s:182    .text:0000000000000108 .L0 
     /tmp/ccVdehIl.s:184    .text:000000000000010c .L0 
     /tmp/ccVdehIl.s:186    .text:0000000000000110 .L0 
     /tmp/ccVdehIl.s:192    .text:0000000000000110 _ZN3TCB8dispatchEv
     /tmp/ccVdehIl.s:195    .text:0000000000000110 .L0 
     /tmp/ccVdehIl.s:196    .text:0000000000000110 .L0 
GAS LISTING /tmp/ccVdehIl.s 			page 17


     /tmp/ccVdehIl.s:197    .text:0000000000000114 .L0 
     /tmp/ccVdehIl.s:201    .text:0000000000000120 .L0 
     /tmp/ccVdehIl.s:202    .text:0000000000000120 .L0 
     /tmp/ccVdehIl.s:203    .text:0000000000000120 .L0 
     /tmp/ccVdehIl.s:205    .text:0000000000000124 .L0 
     /tmp/ccVdehIl.s:207    .text:0000000000000124 .L0 
     /tmp/ccVdehIl.s:208    .text:0000000000000124 .L0 
     /tmp/ccVdehIl.s:213    .text:000000000000012c .L0 
     /tmp/ccVdehIl.s:214    .text:000000000000012c .L0 
     /tmp/ccVdehIl.s:215    .text:000000000000012c .L0 
     /tmp/ccVdehIl.s:220    .text:0000000000000130 .L0 
     /tmp/ccVdehIl.s:223    .text:0000000000000134 .L0 
     /tmp/ccVdehIl.s:224    .text:0000000000000134 .L0 
     /tmp/ccVdehIl.s:227    .text:000000000000013c .L0 
     /tmp/ccVdehIl.s:229    .text:0000000000000144 .L0 
     /tmp/ccVdehIl.s:230    .text:0000000000000144 .L0 
     /tmp/ccVdehIl.s:235    .text:0000000000000154 .L0 
     /tmp/ccVdehIl.s:236    .text:0000000000000158 .L0 
     /tmp/ccVdehIl.s:237    .text:0000000000000158 .L0 
     /tmp/ccVdehIl.s:239    .text:000000000000015c .L0 
     /tmp/ccVdehIl.s:240    .text:000000000000015c .L0 
     /tmp/ccVdehIl.s:242    .text:0000000000000160 .L0 
     /tmp/ccVdehIl.s:245    .text:0000000000000164 .L0 
     /tmp/ccVdehIl.s:249    .text:0000000000000168 .L0 
     /tmp/ccVdehIl.s:251    .text:0000000000000168 .L0 
     /tmp/ccVdehIl.s:252    .text:0000000000000168 .L0 
     /tmp/ccVdehIl.s:256    .text:0000000000000178 .L0 
     /tmp/ccVdehIl.s:262    .text:0000000000000178 _ZN3TCB5blockEPS_
     /tmp/ccVdehIl.s:265    .text:0000000000000178 .L0 
     /tmp/ccVdehIl.s:267    .text:0000000000000178 .L0 
     /tmp/ccVdehIl.s:268    .text:000000000000017c .L0 
     /tmp/ccVdehIl.s:274    .text:0000000000000190 .L0 
     /tmp/ccVdehIl.s:275    .text:0000000000000190 .L0 
     /tmp/ccVdehIl.s:276    .text:0000000000000190 .L0 
     /tmp/ccVdehIl.s:277    .text:0000000000000190 .L0 
     /tmp/ccVdehIl.s:278    .text:0000000000000190 .L0 
     /tmp/ccVdehIl.s:280    .text:0000000000000194 .L0 
     /tmp/ccVdehIl.s:284    .text:000000000000019c .L0 
     /tmp/ccVdehIl.s:285    .text:000000000000019c .L0 
     /tmp/ccVdehIl.s:290    .text:00000000000001a0 .L0 
     /tmp/ccVdehIl.s:297    .text:00000000000001ac .L0 
     /tmp/ccVdehIl.s:303    .text:00000000000001b4 .L0 
     /tmp/ccVdehIl.s:305    .text:00000000000001b8 .L0 
     /tmp/ccVdehIl.s:307    .text:00000000000001bc .L0 
     /tmp/ccVdehIl.s:309    .text:00000000000001c0 .L0 
     /tmp/ccVdehIl.s:312    .text:00000000000001c4 .L0 
     /tmp/ccVdehIl.s:319    .text:00000000000001d0 .L0 
     /tmp/ccVdehIl.s:320    .text:00000000000001d4 .L0 
     /tmp/ccVdehIl.s:321    .text:00000000000001d4 .L0 
     /tmp/ccVdehIl.s:323    .text:00000000000001d8 .L0 
     /tmp/ccVdehIl.s:324    .text:00000000000001d8 .L0 
     /tmp/ccVdehIl.s:326    .text:00000000000001dc .L0 
     /tmp/ccVdehIl.s:328    .text:00000000000001e0 .L0 
     /tmp/ccVdehIl.s:331    .text:00000000000001e4 .L0 
     /tmp/ccVdehIl.s:334    .text:00000000000001e8 .L0 
     /tmp/ccVdehIl.s:338    .text:00000000000001ec .L0 
     /tmp/ccVdehIl.s:342    .text:00000000000001ec .L0 
GAS LISTING /tmp/ccVdehIl.s 			page 18


     /tmp/ccVdehIl.s:347    .text:00000000000001f8 .L0 
     /tmp/ccVdehIl.s:353    .text:00000000000001f8 _ZN3TCB7unblockEv
     /tmp/ccVdehIl.s:356    .text:00000000000001f8 .L0 
     /tmp/ccVdehIl.s:358    .text:00000000000001f8 .L0 
     /tmp/ccVdehIl.s:359    .text:00000000000001fc .L0 
     /tmp/ccVdehIl.s:365    .text:0000000000000210 .L0 
     /tmp/ccVdehIl.s:366    .text:0000000000000210 .L0 
     /tmp/ccVdehIl.s:367    .text:0000000000000210 .L0 
     /tmp/ccVdehIl.s:368    .text:0000000000000210 .L0 
     /tmp/ccVdehIl.s:369    .text:0000000000000210 .L0 
     /tmp/ccVdehIl.s:371    .text:0000000000000214 .L0 
     /tmp/ccVdehIl.s:380    .text:000000000000021c .L0 
     /tmp/ccVdehIl.s:383    .text:0000000000000220 .L0 
     /tmp/ccVdehIl.s:386    .text:0000000000000224 .L0 
     /tmp/ccVdehIl.s:389    .text:000000000000022c .L0 
     /tmp/ccVdehIl.s:397    .text:0000000000000238 .L0 
     /tmp/ccVdehIl.s:398    .text:0000000000000238 .L0 
     /tmp/ccVdehIl.s:404    .text:0000000000000244 .L0 
     /tmp/ccVdehIl.s:407    .text:0000000000000244 .L0 
     /tmp/ccVdehIl.s:408    .text:0000000000000244 .L0 
     /tmp/ccVdehIl.s:413    .text:0000000000000248 .L0 
     /tmp/ccVdehIl.s:416    .text:000000000000024c .L0 
     /tmp/ccVdehIl.s:417    .text:000000000000024c .L0 
     /tmp/ccVdehIl.s:422    .text:0000000000000250 .L0 
     /tmp/ccVdehIl.s:424    .text:0000000000000254 .L0 
     /tmp/ccVdehIl.s:427    .text:0000000000000258 .L0 
     /tmp/ccVdehIl.s:429    .text:000000000000025c .L0 
     /tmp/ccVdehIl.s:431    .text:0000000000000260 .L0 
     /tmp/ccVdehIl.s:436    .text:0000000000000268 .L0 
     /tmp/ccVdehIl.s:444    .text:0000000000000270 .L0 
     /tmp/ccVdehIl.s:445    .text:0000000000000274 .L0 
     /tmp/ccVdehIl.s:447    .text:0000000000000278 .L0 
     /tmp/ccVdehIl.s:448    .text:0000000000000278 .L0 
     /tmp/ccVdehIl.s:450    .text:000000000000027c .L0 
     /tmp/ccVdehIl.s:453    .text:0000000000000280 .L0 
     /tmp/ccVdehIl.s:455    .text:0000000000000284 .L0 
     /tmp/ccVdehIl.s:457    .text:0000000000000288 .L0 
     /tmp/ccVdehIl.s:459    .text:000000000000028c .L0 
     /tmp/ccVdehIl.s:468    .text:000000000000028c .L0 
     /tmp/ccVdehIl.s:469    .text:000000000000028c .L0 
     /tmp/ccVdehIl.s:470    .text:0000000000000290 .L0 
     /tmp/ccVdehIl.s:474    .text:000000000000029c .L0 
     /tmp/ccVdehIl.s:475    .text:000000000000029c .L0 
     /tmp/ccVdehIl.s:476    .text:000000000000029c .L0 
     /tmp/ccVdehIl.s:478    .text:00000000000002a0 .L0 
     /tmp/ccVdehIl.s:480    .text:00000000000002a0 .L0 
     /tmp/ccVdehIl.s:481    .text:00000000000002a0 .L0 
     /tmp/ccVdehIl.s:484    .text:00000000000002a8 .L0 
     /tmp/ccVdehIl.s:485    .text:00000000000002a8 .L0 
     /tmp/ccVdehIl.s:489    .text:00000000000002b8 .L0 
     /tmp/ccVdehIl.s:493    .text:00000000000002c0 .L0 
     /tmp/ccVdehIl.s:494    .text:00000000000002c0 .L0 
     /tmp/ccVdehIl.s:499    .text:00000000000002c4 .L0 
     /tmp/ccVdehIl.s:500    .text:00000000000002c4 .L0 
     /tmp/ccVdehIl.s:506    .text:00000000000002cc .L0 
     /tmp/ccVdehIl.s:507    .text:00000000000002cc .L0 
     /tmp/ccVdehIl.s:510    .text:00000000000002d4 .L0 
GAS LISTING /tmp/ccVdehIl.s 			page 19


     /tmp/ccVdehIl.s:511    .text:00000000000002d4 .L0 
     /tmp/ccVdehIl.s:514    .text:00000000000002dc .L0 
     /tmp/ccVdehIl.s:515    .text:00000000000002e0 .L0 
     /tmp/ccVdehIl.s:517    .text:00000000000002e4 .L0 
     /tmp/ccVdehIl.s:518    .text:00000000000002e4 .L0 
     /tmp/ccVdehIl.s:520    .text:00000000000002e8 .L0 
     /tmp/ccVdehIl.s:522    .text:00000000000002ec .L0 
     /tmp/ccVdehIl.s:524    .text:00000000000002f0 .L0 
     /tmp/ccVdehIl.s:538    .bss:0000000000000008 _ZN3TCB16timeSliceCounterE
     /tmp/ccVdehIl.s:534    .bss:0000000000000000 _ZN3TCB7runningE
     /tmp/ccVdehIl.s:531    .bss:0000000000000000 .LANCHOR0
     /tmp/ccVdehIl.s:546    .text:00000000000002f0 .L0 
     /tmp/ccVdehIl.s:63     .text:0000000000000058 .L0 
     /tmp/ccVdehIl.s:208    .text:0000000000000124 .L0 
     /tmp/ccVdehIl.s:227    .text:000000000000013c .L0 
     /tmp/ccVdehIl.s:485    .text:00000000000002a8 .L0 
     /tmp/ccVdehIl.s:57     .text:0000000000000050 .L6
     /tmp/ccVdehIl.s:60     .text:0000000000000054 .L2
     /tmp/ccVdehIl.s:97     .text:00000000000000a4 .L7
     /tmp/ccVdehIl.s:115    .text:00000000000000c8 .L1
     /tmp/ccVdehIl.s:70     .text:0000000000000070 .L3
     /tmp/ccVdehIl.s:248    .text:0000000000000168 .L15
     /tmp/ccVdehIl.s:221    .text:0000000000000134 .L13
     /tmp/ccVdehIl.s:337    .text:00000000000001ec .L17
     /tmp/ccVdehIl.s:310    .text:00000000000001c4 .L18
     /tmp/ccVdehIl.s:401    .text:0000000000000244 .L24
     /tmp/ccVdehIl.s:439    .text:0000000000000270 .L20
     /tmp/ccVdehIl.s:434    .text:0000000000000268 .L25
     /tmp/ccVdehIl.s:381    .text:0000000000000220 .L23
     /tmp/ccVdehIl.s:375    .text:000000000000021c .L27
     /tmp/ccVdehIl.s:393    .text:0000000000000238 .L22
     /tmp/ccVdehIl.s:37     .text:0000000000000028 .LEHB0
     /tmp/ccVdehIl.s:10     .text:0000000000000000 .LFB38
     /tmp/ccVdehIl.s:40     .text:0000000000000030 .LEHE0
     /tmp/ccVdehIl.s:53     .text:0000000000000044 .LEHB1
     /tmp/ccVdehIl.s:95     .text:00000000000000a0 .LEHE1
     /tmp/ccVdehIl.s:101    .text:00000000000000ac .L8
     /tmp/ccVdehIl.s:111    .text:00000000000000c0 .LEHB2
     /tmp/ccVdehIl.s:114    .text:00000000000000c8 .LEHE2
     /tmp/ccVdehIl.s:2065   .debug_abbrev:0000000000000000 .Ldebug_abbrev0
     /tmp/ccVdehIl.s:3814   .debug_str:0000000000000809 .LASF148
     /tmp/ccVdehIl.s:3696   .debug_str:00000000000004d0 .LASF149
     /tmp/ccVdehIl.s:3632   .debug_str:00000000000002c9 .LASF150
     /tmp/ccVdehIl.s:5      .text:0000000000000000 .Ltext0
     /tmp/ccVdehIl.s:541    .text:00000000000002f0 .Letext0
     /tmp/ccVdehIl.s:3540   .debug_line:0000000000000000 .Ldebug_line0
     /tmp/ccVdehIl.s:3724   .debug_str:000000000000059a .LASF0
     /tmp/ccVdehIl.s:3744   .debug_str:000000000000062e .LASF1
     /tmp/ccVdehIl.s:3704   .debug_str:0000000000000509 .LASF2
     /tmp/ccVdehIl.s:3610   .debug_str:000000000000022c .LASF3
     /tmp/ccVdehIl.s:3666   .debug_str:00000000000003f1 .LASF4
     /tmp/ccVdehIl.s:3788   .debug_str:000000000000075b .LASF5
     /tmp/ccVdehIl.s:3570   .debug_str:00000000000000de .LASF6
     /tmp/ccVdehIl.s:3746   .debug_str:0000000000000641 .LASF7
     /tmp/ccVdehIl.s:3722   .debug_str:0000000000000587 .LASF8
     /tmp/ccVdehIl.s:3828   .debug_str:000000000000090f .LASF9
     /tmp/ccVdehIl.s:3646   .debug_str:0000000000000326 .LASF10
GAS LISTING /tmp/ccVdehIl.s 			page 20


     /tmp/ccVdehIl.s:3756   .debug_str:0000000000000693 .LASF11
     /tmp/ccVdehIl.s:3820   .debug_str:00000000000008e9 .LASF12
     /tmp/ccVdehIl.s:3576   .debug_str:00000000000000f8 .LASF13
     /tmp/ccVdehIl.s:3548   .debug_str:000000000000003c .LASF14
     /tmp/ccVdehIl.s:3588   .debug_str:0000000000000164 .LASF15
     /tmp/ccVdehIl.s:3778   .debug_str:0000000000000717 .LASF16
     /tmp/ccVdehIl.s:3604   .debug_str:00000000000001fd .LASF17
     /tmp/ccVdehIl.s:3752   .debug_str:0000000000000675 .LASF18
     /tmp/ccVdehIl.s:3634   .debug_str:00000000000002e7 .LASF79
     /tmp/ccVdehIl.s:3660   .debug_str:00000000000003c6 .LASF151
     /tmp/ccVdehIl.s:3584   .debug_str:0000000000000142 .LASF152
     /tmp/ccVdehIl.s:3692   .debug_str:00000000000004b9 .LASF19
     /tmp/ccVdehIl.s:3822   .debug_str:00000000000008f8 .LASF22
     /tmp/ccVdehIl.s:3770   .debug_str:00000000000006e6 .LASF20
     /tmp/ccVdehIl.s:3854   .debug_str:00000000000009f0 .LASF21
     /tmp/ccVdehIl.s:3714   .debug_str:0000000000000542 .LASF73
     /tmp/ccVdehIl.s:3608   .debug_str:0000000000000227 .LASF23
     /tmp/ccVdehIl.s:3708   .debug_str:0000000000000523 .LASF24
     /tmp/ccVdehIl.s:3802   .debug_str:00000000000007b6 .LASF25
     /tmp/ccVdehIl.s:3806   .debug_str:00000000000007d7 .LASF26
     /tmp/ccVdehIl.s:3664   .debug_str:00000000000003ec .LASF27
     /tmp/ccVdehIl.s:3730   .debug_str:00000000000005b7 .LASF29
     /tmp/ccVdehIl.s:3776   .debug_str:0000000000000700 .LASF31
     /tmp/ccVdehIl.s:3716   .debug_str:0000000000000561 .LASF153
     /tmp/ccVdehIl.s:3652   .debug_str:000000000000036e .LASF154
     /tmp/ccVdehIl.s:3858   .debug_str:0000000000000a0c .LASF28
     /tmp/ccVdehIl.s:3702   .debug_str:00000000000004f2 .LASF30
     /tmp/ccVdehIl.s:3590   .debug_str:0000000000000170 .LASF32
     /tmp/ccVdehIl.s:3636   .debug_str:00000000000002f8 .LASF33
     /tmp/ccVdehIl.s:3676   .debug_str:0000000000000424 .LASF34
     /tmp/ccVdehIl.s:3826   .debug_str:0000000000000904 .LASF35
     /tmp/ccVdehIl.s:3658   .debug_str:00000000000003a9 .LASF36
     /tmp/ccVdehIl.s:3812   .debug_str:0000000000000800 .LASF37
     /tmp/ccVdehIl.s:3614   .debug_str:000000000000024f .LASF38
     /tmp/ccVdehIl.s:3644   .debug_str:000000000000031e .LASF39
     /tmp/ccVdehIl.s:3612   .debug_str:0000000000000233 .LASF40
     /tmp/ccVdehIl.s:3816   .debug_str:00000000000008cd .LASF41
     /tmp/ccVdehIl.s:3544   .debug_str:0000000000000008 .LASF42
     /tmp/ccVdehIl.s:3582   .debug_str:0000000000000138 .LASF43
     /tmp/ccVdehIl.s:3682   .debug_str:0000000000000453 .LASF44
     /tmp/ccVdehIl.s:3734   .debug_str:00000000000005e2 .LASF45
     /tmp/ccVdehIl.s:3560   .debug_str:000000000000007e .LASF46
     /tmp/ccVdehIl.s:3684   .debug_str:000000000000046e .LASF47
     /tmp/ccVdehIl.s:3842   .debug_str:0000000000000987 .LASF48
     /tmp/ccVdehIl.s:3772   .debug_str:00000000000006eb .LASF49
     /tmp/ccVdehIl.s:3840   .debug_str:000000000000096e .LASF50
     /tmp/ccVdehIl.s:3556   .debug_str:0000000000000070 .LASF51
     /tmp/ccVdehIl.s:3616   .debug_str:000000000000026c .LASF52
     /tmp/ccVdehIl.s:3764   .debug_str:00000000000006d0 .LASF53
     /tmp/ccVdehIl.s:3748   .debug_str:0000000000000654 .LASF54
     /tmp/ccVdehIl.s:3600   .debug_str:00000000000001d0 .LASF55
     /tmp/ccVdehIl.s:3706   .debug_str:0000000000000517 .LASF56
     /tmp/ccVdehIl.s:3856   .debug_str:00000000000009f5 .LASF57
     /tmp/ccVdehIl.s:3694   .debug_str:00000000000004c3 .LASF58
     /tmp/ccVdehIl.s:3566   .debug_str:00000000000000bd .LASF59
     /tmp/ccVdehIl.s:3680   .debug_str:0000000000000446 .LASF60
     /tmp/ccVdehIl.s:3742   .debug_str:000000000000060e .LASF61
GAS LISTING /tmp/ccVdehIl.s 			page 21


     /tmp/ccVdehIl.s:3768   .debug_str:00000000000006e1 .LASF155
     /tmp/ccVdehIl.s:3780   .debug_str:000000000000072d .LASF85
     /tmp/ccVdehIl.s:3712   .debug_str:0000000000000532 .LASF87
     /tmp/ccVdehIl.s:3620   .debug_str:000000000000027a .LASF62
     /tmp/ccVdehIl.s:3662   .debug_str:00000000000003da .LASF63
     /tmp/ccVdehIl.s:3572   .debug_str:00000000000000e5 .LASF64
     /tmp/ccVdehIl.s:3648   .debug_str:0000000000000334 .LASF65
     /tmp/ccVdehIl.s:3622   .debug_str:0000000000000280 .LASF156
     /tmp/ccVdehIl.s:3718   .debug_str:000000000000056b .LASF157
     /tmp/ccVdehIl.s:3672   .debug_str:0000000000000414 .LASF66
     /tmp/ccVdehIl.s:3594   .debug_str:0000000000000196 .LASF67
     /tmp/ccVdehIl.s:3784   .debug_str:000000000000073b .LASF68
     /tmp/ccVdehIl.s:3736   .debug_str:00000000000005ed .LASF69
     /tmp/ccVdehIl.s:3670   .debug_str:000000000000040b .LASF70
     /tmp/ccVdehIl.s:3774   .debug_str:00000000000006f3 .LASF71
     /tmp/ccVdehIl.s:3686   .debug_str:0000000000000477 .LASF75
     /tmp/ccVdehIl.s:3654   .debug_str:0000000000000385 .LASF77
     /tmp/ccVdehIl.s:3836   .debug_str:000000000000094d .LASF72
     /tmp/ccVdehIl.s:3650   .debug_str:0000000000000346 .LASF74
     /tmp/ccVdehIl.s:3728   .debug_str:00000000000005ae .LASF76
     /tmp/ccVdehIl.s:3628   .debug_str:00000000000002b1 .LASF78
     /tmp/ccVdehIl.s:3790   .debug_str:000000000000076d .LASF80
     /tmp/ccVdehIl.s:3574   .debug_str:00000000000000ed .LASF81
     /tmp/ccVdehIl.s:3656   .debug_str:000000000000039e .LASF82
     /tmp/ccVdehIl.s:3630   .debug_str:00000000000002c4 .LASF83
     /tmp/ccVdehIl.s:3740   .debug_str:0000000000000608 .LASF84
     /tmp/ccVdehIl.s:3794   .debug_str:0000000000000785 .LASF86
     /tmp/ccVdehIl.s:3848   .debug_str:00000000000009b9 .LASF88
     /tmp/ccVdehIl.s:3550   .debug_str:000000000000004c .LASF89
     /tmp/ccVdehIl.s:3624   .debug_str:0000000000000288 .LASF92
     /tmp/ccVdehIl.s:3618   .debug_str:0000000000000271 .LASF90
     /tmp/ccVdehIl.s:3552   .debug_str:0000000000000055 .LASF95
     /tmp/ccVdehIl.s:3792   .debug_str:000000000000077e .LASF91
     /tmp/ccVdehIl.s:3762   .debug_str:00000000000006bd .LASF93
     /tmp/ccVdehIl.s:3824   .debug_str:00000000000008fd .LASF94
     /tmp/ccVdehIl.s:3668   .debug_str:00000000000003f8 .LASF96
     /tmp/ccVdehIl.s:3638   .debug_str:0000000000000300 .LASF97
     /tmp/ccVdehIl.s:3606   .debug_str:0000000000000213 .LASF98
     /tmp/ccVdehIl.s:3542   .debug_str:0000000000000000 .LASF99
     /tmp/ccVdehIl.s:3850   .debug_str:00000000000009d1 .LASF100
     /tmp/ccVdehIl.s:3568   .debug_str:00000000000000d6 .LASF101
     /tmp/ccVdehIl.s:3578   .debug_str:0000000000000108 .LASF102
     /tmp/ccVdehIl.s:3782   .debug_str:0000000000000733 .LASF103
     /tmp/ccVdehIl.s:3626   .debug_str:000000000000029d .LASF104
     /tmp/ccVdehIl.s:3726   .debug_str:00000000000005a7 .LASF105
     /tmp/ccVdehIl.s:3844   .debug_str:00000000000009a1 .LASF106
     /tmp/ccVdehIl.s:3562   .debug_str:000000000000009b .LASF107
     /tmp/ccVdehIl.s:3838   .debug_str:000000000000095b .LASF108
     /tmp/ccVdehIl.s:3642   .debug_str:0000000000000318 .LASF109
     /tmp/ccVdehIl.s:3810   .debug_str:00000000000007ee .LASF110
     /tmp/ccVdehIl.s:3558   .debug_str:0000000000000078 .LASF111
     /tmp/ccVdehIl.s:3860   .debug_str:0000000000000a12 .LASF112
     /tmp/ccVdehIl.s:3852   .debug_str:00000000000009e5 .LASF113
     /tmp/ccVdehIl.s:3786   .debug_str:0000000000000743 .LASF114
     /tmp/ccVdehIl.s:3674   .debug_str:0000000000000419 .LASF115
     /tmp/ccVdehIl.s:3804   .debug_str:00000000000007bf .LASF116
     /tmp/ccVdehIl.s:3586   .debug_str:000000000000015a .LASF117
GAS LISTING /tmp/ccVdehIl.s 			page 22


     /tmp/ccVdehIl.s:3750   .debug_str:000000000000065f .LASF118
     /tmp/ccVdehIl.s:3710   .debug_str:0000000000000528 .LASF119
     /tmp/ccVdehIl.s:3602   .debug_str:00000000000001e7 .LASF120
     /tmp/ccVdehIl.s:3796   .debug_str:0000000000000790 .LASF121
     /tmp/ccVdehIl.s:3580   .debug_str:000000000000011c .LASF122
     /tmp/ccVdehIl.s:3832   .debug_str:0000000000000932 .LASF123
     /tmp/ccVdehIl.s:3688   .debug_str:0000000000000485 .LASF124
     /tmp/ccVdehIl.s:3798   .debug_str:000000000000079f .LASF125
     /tmp/ccVdehIl.s:3678   .debug_str:000000000000043d .LASF126
     /tmp/ccVdehIl.s:3754   .debug_str:000000000000067f .LASF127
     /tmp/ccVdehIl.s:3690   .debug_str:00000000000004a7 .LASF128
     /tmp/ccVdehIl.s:3546   .debug_str:0000000000000026 .LASF129
     /tmp/ccVdehIl.s:3808   .debug_str:00000000000007dc .LASF130
     /tmp/ccVdehIl.s:3738   .debug_str:00000000000005f7 .LASF131
     /tmp/ccVdehIl.s:3564   .debug_str:00000000000000a2 .LASF132
     /tmp/ccVdehIl.s:3846   .debug_str:00000000000009b4 .LASF133
     /tmp/ccVdehIl.s:3598   .debug_str:00000000000001b1 .LASF135
     /tmp/ccVdehIl.s:3766   .debug_str:00000000000006dc .LASF134
     /tmp/ccVdehIl.s:3830   .debug_str:000000000000091f .LASF136
     /tmp/ccVdehIl.s:354    .text:00000000000001f8 .LFB43
     /tmp/ccVdehIl.s:460    .text:000000000000028c .LFE43
     /tmp/ccVdehIl.s:3213   .debug_loc:0000000000000000 .LLST15
     /tmp/ccVdehIl.s:3520   .debug_ranges:0000000000000000 .Ldebug_ranges0
     /tmp/ccVdehIl.s:3231   .debug_loc:000000000000004c .LLST16
     /tmp/ccVdehIl.s:377    .text:000000000000021c .LBB45
     /tmp/ccVdehIl.s:3238   .debug_loc:000000000000006f .LLST17
     /tmp/ccVdehIl.s:3249   .debug_loc:00000000000000a5 .LLST18
     /tmp/ccVdehIl.s:3260   .debug_loc:00000000000000db .LLST19
     /tmp/ccVdehIl.s:387    .text:000000000000022c .LVL34
     /tmp/ccVdehIl.s:400    .text:0000000000000244 .LVL36
     /tmp/ccVdehIl.s:405    .text:0000000000000244 .LBB49
     /tmp/ccVdehIl.s:411    .text:0000000000000248 .LBE49
     /tmp/ccVdehIl.s:3267   .debug_loc:00000000000000fe .LLST20
     /tmp/ccVdehIl.s:263    .text:0000000000000178 .LFB42
     /tmp/ccVdehIl.s:348    .text:00000000000001f8 .LFE42
     /tmp/ccVdehIl.s:3276   .debug_loc:0000000000000123 .LLST8
     /tmp/ccVdehIl.s:3720   .debug_str:0000000000000580 .LASF137
     /tmp/ccVdehIl.s:3298   .debug_loc:0000000000000182 .LLST9
     /tmp/ccVdehIl.s:287    .text:00000000000001a0 .LBB33
     /tmp/ccVdehIl.s:3320   .debug_loc:00000000000001e1 .LLST10
     /tmp/ccVdehIl.s:3335   .debug_loc:000000000000022a .LLST11
     /tmp/ccVdehIl.s:294    .text:00000000000001ac .LBB35
     /tmp/ccVdehIl.s:301    .text:00000000000001b4 .LBE35
     /tmp/ccVdehIl.s:3346   .debug_loc:0000000000000260 .LLST12
     /tmp/ccVdehIl.s:3354   .debug_loc:0000000000000284 .LLST13
     /tmp/ccVdehIl.s:3361   .debug_loc:00000000000002a7 .LLST14
     /tmp/ccVdehIl.s:293    .text:00000000000001ac .LVL25
     /tmp/ccVdehIl.s:466    .text:000000000000028c .LFB41
     /tmp/ccVdehIl.s:525    .text:00000000000002f0 .LFE41
     /tmp/ccVdehIl.s:496    .text:00000000000002c4 .LBB52
     /tmp/ccVdehIl.s:504    .text:00000000000002cc .LBE52
     /tmp/ccVdehIl.s:3368   .debug_loc:00000000000002ca .LLST21
     /tmp/ccVdehIl.s:3376   .debug_loc:00000000000002ee .LLST22
     /tmp/ccVdehIl.s:482    .text:00000000000002a8 .LVL43
     /tmp/ccVdehIl.s:508    .text:00000000000002d4 .LVL47
     /tmp/ccVdehIl.s:512    .text:00000000000002dc .LVL48
     /tmp/ccVdehIl.s:193    .text:0000000000000110 .LFB40
GAS LISTING /tmp/ccVdehIl.s 			page 23


     /tmp/ccVdehIl.s:257    .text:0000000000000178 .LFE40
     /tmp/ccVdehIl.s:3383   .debug_loc:0000000000000311 .LLST6
     /tmp/ccVdehIl.s:211    .text:000000000000012c .LBB26
     /tmp/ccVdehIl.s:218    .text:0000000000000130 .LBE26
     /tmp/ccVdehIl.s:3394   .debug_loc:0000000000000347 .LLST7
     /tmp/ccVdehIl.s:225    .text:000000000000013c .LVL17
     /tmp/ccVdehIl.s:233    .text:0000000000000154 .LVL18
     /tmp/ccVdehIl.s:254    .text:0000000000000174 .LVL21
     /tmp/ccVdehIl.s:162    .text:00000000000000e8 .LFB39
     /tmp/ccVdehIl.s:187    .text:0000000000000110 .LFE39
     /tmp/ccVdehIl.s:176    .text:0000000000000100 .LVL14
     /tmp/ccVdehIl.s:136    .text:00000000000000e8 .LFE38
     /tmp/ccVdehIl.s:3401   .debug_loc:000000000000036a .LLST0
     /tmp/ccVdehIl.s:3430   .debug_loc:00000000000003df .LLST1
     /tmp/ccVdehIl.s:43     .text:0000000000000034 .LBB22
     /tmp/ccVdehIl.s:105    .text:00000000000000b0 .LBE22
     /tmp/ccVdehIl.s:3448   .debug_loc:000000000000042b .LLST2
     /tmp/ccVdehIl.s:3462   .debug_loc:0000000000000464 .LLST3
     /tmp/ccVdehIl.s:3487   .debug_loc:00000000000004c6 .LLST4
     /tmp/ccVdehIl.s:77     .text:0000000000000080 .LBB24
     /tmp/ccVdehIl.s:87     .text:0000000000000090 .LBE24
     /tmp/ccVdehIl.s:3498   .debug_loc:00000000000004fc .LLST5
     /tmp/ccVdehIl.s:55     .text:000000000000004c .LVL4
     /tmp/ccVdehIl.s:94     .text:00000000000000a0 .LVL7
     /tmp/ccVdehIl.s:39     .text:0000000000000030 .LVL2
     /tmp/ccVdehIl.s:109    .text:00000000000000bc .LVL9
     /tmp/ccVdehIl.s:113    .text:00000000000000c8 .LVL10
     /tmp/ccVdehIl.s:3596   .debug_str:000000000000019c .LASF138
     /tmp/ccVdehIl.s:3758   .debug_str:00000000000006a2 .LASF139
     /tmp/ccVdehIl.s:3700   .debug_str:00000000000004eb .LASF140
     /tmp/ccVdehIl.s:3592   .debug_str:0000000000000186 .LASF142
     /tmp/ccVdehIl.s:3554   .debug_str:000000000000006a .LASF141
     /tmp/ccVdehIl.s:3800   .debug_str:00000000000007a9 .LASF143
     /tmp/ccVdehIl.s:3760   .debug_str:00000000000006a8 .LASF158
     /tmp/ccVdehIl.s:3640   .debug_str:0000000000000308 .LASF159
     /tmp/ccVdehIl.s:3834   .debug_str:0000000000000947 .LASF144
     /tmp/ccVdehIl.s:3818   .debug_str:00000000000008d9 .LASF145
     /tmp/ccVdehIl.s:3698   .debug_str:00000000000004dc .LASF146
     /tmp/ccVdehIl.s:3732   .debug_str:00000000000005ca .LASF147
     /tmp/ccVdehIl.s:357    .text:00000000000001f8 .LVL31
     /tmp/ccVdehIl.s:374    .text:000000000000021c .LVL32
     /tmp/ccVdehIl.s:451    .text:000000000000027c .LVL42
     /tmp/ccVdehIl.s:392    .text:0000000000000238 .LVL35
     /tmp/ccVdehIl.s:418    .text:0000000000000250 .LVL38
     /tmp/ccVdehIl.s:438    .text:0000000000000270 .LVL41
     /tmp/ccVdehIl.s:425    .text:0000000000000258 .LVL39
     /tmp/ccVdehIl.s:433    .text:0000000000000268 .LVL40
     /tmp/ccVdehIl.s:384    .text:0000000000000224 .LVL33
     /tmp/ccVdehIl.s:409    .text:0000000000000248 .LVL37
     /tmp/ccVdehIl.s:266    .text:0000000000000178 .LVL22
     /tmp/ccVdehIl.s:291    .text:00000000000001a4 .LVL24
     /tmp/ccVdehIl.s:329    .text:00000000000001e0 .LVL28
     /tmp/ccVdehIl.s:336    .text:00000000000001ec .LVL30
     /tmp/ccVdehIl.s:332    .text:00000000000001e4 .LVL29
     /tmp/ccVdehIl.s:286    .text:00000000000001a0 .LVL23
     /tmp/ccVdehIl.s:315    .text:00000000000001d0 .LVL27
     /tmp/ccVdehIl.s:299    .text:00000000000001b4 .LVL26
GAS LISTING /tmp/ccVdehIl.s 			page 24


     /tmp/ccVdehIl.s:495    .text:00000000000002c4 .LVL45
     /tmp/ccVdehIl.s:502    .text:00000000000002cc .LVL46
     /tmp/ccVdehIl.s:209    .text:000000000000012c .LVL15
     /tmp/ccVdehIl.s:243    .text:0000000000000160 .LVL19
     /tmp/ccVdehIl.s:247    .text:0000000000000168 .LVL20
     /tmp/ccVdehIl.s:216    .text:0000000000000130 .LVL16
     /tmp/ccVdehIl.s:16     .text:0000000000000000 .LVL0
     /tmp/ccVdehIl.s:36     .text:0000000000000028 .LVL1
     /tmp/ccVdehIl.s:103    .text:00000000000000b0 .LVL8
     /tmp/ccVdehIl.s:128    .text:00000000000000dc .LVL12
     /tmp/ccVdehIl.s:131    .text:00000000000000e0 .LVL13
     /tmp/ccVdehIl.s:42     .text:0000000000000034 .LVL3
     /tmp/ccVdehIl.s:125    .text:00000000000000d8 .LVL11
     /tmp/ccVdehIl.s:76     .text:0000000000000080 .LVL5
     /tmp/ccVdehIl.s:85     .text:0000000000000090 .LVL6
     /tmp/ccVdehIl.s:547    .debug_info:0000000000000000 .Ldebug_info0
     /tmp/ccVdehIl.s:317    .text:00000000000001d0 .LBE33
     /tmp/ccVdehIl.s:339    .text:00000000000001ec .LBB38
     /tmp/ccVdehIl.s:346    .text:00000000000001f8 .LBE38
     /tmp/ccVdehIl.s:376    .text:000000000000021c .LBB44
     /tmp/ccVdehIl.s:402    .text:0000000000000244 .LBE44
     /tmp/ccVdehIl.s:414    .text:000000000000024c .LBB51
     /tmp/ccVdehIl.s:442    .text:0000000000000270 .LBE51
     /tmp/ccVdehIl.s:395    .text:0000000000000238 .LBE45
     /tmp/ccVdehIl.s:419    .text:0000000000000250 .LBB48
     /tmp/ccVdehIl.s:441    .text:0000000000000270 .LBE48
     /tmp/ccVdehIl.s:139    .gcc_except_table:0000000000000000 .LLSDA38

UNDEFINED SYMBOLS
_Znwm
_Znam
_ZN9Scheduler3putEP3TCB
_ZdlPv
_Unwind_Resume
__gxx_personality_v0
_Z15thread_dispatchv
_ZN9Scheduler3getEv
_ZN3TCB13contextSwitchEPNS_7ContextES1_
_ZN5Riscv10popSppSpieEv
