GAS LISTING /tmp/ccxWC9L2.s 			page 1


   1              		.file	"tcb.cpp"
   2              		.option pic
   3              		.option norelax
   4              		.text
   5              	.Ltext0:
   6              		.align	2
   7              		.globl	_ZN3TCB12createThreadEPFvPvES0_
   9              	_ZN3TCB12createThreadEPFvPvES0_:
  10              	.LFB40:
  11              		.file 1 "src/tcb.cpp"
   1:src/tcb.cpp   **** //
   2:src/tcb.cpp   **** // Created by marko on 20.4.22..
   3:src/tcb.cpp   **** //
   4:src/tcb.cpp   **** 
   5:src/tcb.cpp   **** #include "../h/tcb.hpp"
   6:src/tcb.cpp   **** #include "../h/riscv.hpp"
   7:src/tcb.cpp   **** #include "../h/syscall_c.hpp"
   8:src/tcb.cpp   **** 
   9:src/tcb.cpp   **** TCB *TCB::running = nullptr;
  10:src/tcb.cpp   **** 
  11:src/tcb.cpp   **** uint64 TCB::timeSliceCounter = 0;
  12:src/tcb.cpp   **** 
  13:src/tcb.cpp   **** 
  14:src/tcb.cpp   **** TCB *TCB::createThread(Body body, void* arg)
  15:src/tcb.cpp   **** {
  12              		.loc 1 15 1
  13              		.cfi_startproc
  14              		.cfi_personality 0x9b,DW.ref.__gxx_personality_v0
  15              		.cfi_lsda 0x1b,.LLSDA40
  16              	.LVL0:
  17 0000 130101FD 		addi	sp,sp,-48
  18              		.cfi_def_cfa_offset 48
  19 0004 23341102 		sd	ra,40(sp)
  20 0008 23308102 		sd	s0,32(sp)
  21 000c 233C9100 		sd	s1,24(sp)
  22 0010 23382101 		sd	s2,16(sp)
  23 0014 23343101 		sd	s3,8(sp)
  24              		.cfi_offset 1, -8
  25              		.cfi_offset 8, -16
  26              		.cfi_offset 9, -24
  27              		.cfi_offset 18, -32
  28              		.cfi_offset 19, -40
  29 0018 13040103 		addi	s0,sp,48
  30              		.cfi_def_cfa 8, 0
  31 001c 13090500 		mv	s2,a0
  32 0020 93890500 		mv	s3,a1
  16:src/tcb.cpp   ****     return new TCB(body,arg, TIME_SLICE);
  33              		.loc 1 16 5
  34              		.loc 1 16 40 is_stmt 0
  35 0024 13058005 		li	a0,88
  36              	.LVL1:
  37              	.LEHB0:
  38 0028 97000000 		call	_Znwm@plt
  38      E7800000 
  39              	.LVL2:
  40              	.LEHE0:
  41 0030 93040500 		mv	s1,a0
GAS LISTING /tmp/ccxWC9L2.s 			page 2


  42              	.LVL3:
  43              	.LBB24:
  44              	.LBB25:
  45              		.file 2 "src/../h/tcb.hpp"
   1:src/../h/tcb.hpp **** //
   2:src/../h/tcb.hpp **** // Created by marko on 20.4.22..
   3:src/../h/tcb.hpp **** //
   4:src/../h/tcb.hpp **** 
   5:src/../h/tcb.hpp **** #ifndef OS1_VEZBE07_RISCV_CONTEXT_SWITCH_2_INTERRUPT_TCB_HPP
   6:src/../h/tcb.hpp **** #define OS1_VEZBE07_RISCV_CONTEXT_SWITCH_2_INTERRUPT_TCB_HPP
   7:src/../h/tcb.hpp **** 
   8:src/../h/tcb.hpp **** #include "../lib/hw.h"
   9:src/../h/tcb.hpp **** #include "scheduler.hpp"
  10:src/../h/tcb.hpp **** 
  11:src/../h/tcb.hpp **** // Thread Control Block
  12:src/../h/tcb.hpp **** class TCB
  13:src/../h/tcb.hpp **** {
  14:src/../h/tcb.hpp **** public:
  15:src/../h/tcb.hpp ****     ~TCB() { if (stack!= nullptr) delete[] stack; }
  16:src/../h/tcb.hpp **** 
  17:src/../h/tcb.hpp ****     bool isFinished() const { return finished; }
  18:src/../h/tcb.hpp **** 
  19:src/../h/tcb.hpp ****     void setFinished(bool value) { finished = value; }
  20:src/../h/tcb.hpp **** 
  21:src/../h/tcb.hpp ****     uint64 getTimeSlice() const { return timeSlice; }
  22:src/../h/tcb.hpp **** 
  23:src/../h/tcb.hpp ****     using Body = void (*)(void *);
  24:src/../h/tcb.hpp **** 
  25:src/../h/tcb.hpp ****     static TCB *createThread(Body body, void* arg);
  26:src/../h/tcb.hpp **** 
  27:src/../h/tcb.hpp ****     static void yield();
  28:src/../h/tcb.hpp **** 
  29:src/../h/tcb.hpp ****     void block (TCB* thread);
  30:src/../h/tcb.hpp **** 
  31:src/../h/tcb.hpp ****     void unblock ();
  32:src/../h/tcb.hpp **** 
  33:src/../h/tcb.hpp ****     void setBlocked (bool val){ blocked=val;}
  34:src/../h/tcb.hpp **** 
  35:src/../h/tcb.hpp ****     bool isBlocked () {return blocked;}
  36:src/../h/tcb.hpp **** 
  37:src/../h/tcb.hpp ****     static TCB *running;
  38:src/../h/tcb.hpp **** 
  39:src/../h/tcb.hpp **** private:
  40:src/../h/tcb.hpp ****     TCB(Body body, void* arg,uint64 timeSlice) :
  41:src/../h/tcb.hpp ****             arg(arg),
  42:src/../h/tcb.hpp ****             body(body),
  43:src/../h/tcb.hpp ****             stack(body != nullptr ? new uint64[STACK_SIZE] : nullptr),
  44:src/../h/tcb.hpp ****             context({(uint64) &threadWrapper,
  45:src/../h/tcb.hpp ****                      stack != nullptr ? (uint64) &stack[STACK_SIZE] : 0
  46:src/../h/tcb.hpp ****                     }),
  47:src/../h/tcb.hpp ****             timeSlice(timeSlice),
  48:src/../h/tcb.hpp ****             finished(false),
  49:src/../h/tcb.hpp ****             blocked(false)
  46              		.loc 2 49 26
  47 0034 23303501 		sd	s3,0(a0)
  48 0038 23342501 		sd	s2,8(a0)
  43:src/../h/tcb.hpp ****             context({(uint64) &threadWrapper,
GAS LISTING /tmp/ccxWC9L2.s 			page 3


  49              		.loc 2 43 35
  50 003c 630A0900 		beqz	s2,.L6
  43:src/../h/tcb.hpp ****             context({(uint64) &threadWrapper,
  51              		.loc 2 43 58
  52 0040 37250000 		li	a0,8192
  53              	.LEHB1:
  54 0044 97000000 		call	_Znam@plt
  54      E7800000 
  55              	.LVL4:
  56 004c 6F008000 		j	.L2
  57              	.L6:
  43:src/../h/tcb.hpp ****             context({(uint64) &threadWrapper,
  58              		.loc 2 43 35
  59 0050 13050000 		li	a0,0
  60              	.L2:
  61              		.loc 2 49 26
  62 0054 23B8A400 		sd	a0,16(s1)
  63 0058 97070000 		lla	a5,_ZN3TCB13threadWrapperEv
  63      93870700 
  64 0060 23BCF400 		sd	a5,24(s1)
  45:src/../h/tcb.hpp ****                     }),
  65              		.loc 2 45 39
  66 0064 63020504 		beqz	a0,.L7
  45:src/../h/tcb.hpp ****                     }),
  67              		.loc 2 45 50
  68 0068 B7270000 		li	a5,8192
  69 006c B307F500 		add	a5,a0,a5
  70              	.L3:
  71              		.loc 2 49 26
  72 0070 23B0F402 		sd	a5,32(s1)
  73 0074 93072000 		li	a5,2
  74 0078 23B4F402 		sd	a5,40(s1)
  75 007c 23880402 		sb	zero,48(s1)
  76 0080 A3880402 		sb	zero,49(s1)
  77              	.LVL5:
  78              	.LBB26:
  79              	.LBB27:
  80              		.file 3 "src/../h/list.hpp"
   1:src/../h/list.hpp **** //
   2:src/../h/list.hpp **** // Created by marko on 20.4.22..
   3:src/../h/list.hpp **** //
   4:src/../h/list.hpp **** 
   5:src/../h/list.hpp **** #ifndef OS1_VEZBE07_RISCV_CONTEXT_SWITCH_2_INTERRUPT_LIST_HPP
   6:src/../h/list.hpp **** #define OS1_VEZBE07_RISCV_CONTEXT_SWITCH_2_INTERRUPT_LIST_HPP
   7:src/../h/list.hpp **** 
   8:src/../h/list.hpp **** template<typename T>
   9:src/../h/list.hpp **** class List
  10:src/../h/list.hpp **** {
  11:src/../h/list.hpp **** private:
  12:src/../h/list.hpp ****     struct Elem
  13:src/../h/list.hpp ****     {
  14:src/../h/list.hpp ****         T *data;
  15:src/../h/list.hpp ****         Elem *next;
  16:src/../h/list.hpp **** 
  17:src/../h/list.hpp ****         Elem(T *data, Elem *next) : data(data), next(next) {}
  18:src/../h/list.hpp ****     };
  19:src/../h/list.hpp **** 
GAS LISTING /tmp/ccxWC9L2.s 			page 4


  20:src/../h/list.hpp ****     Elem *head, *tail;
  21:src/../h/list.hpp ****     Elem* iterator = nullptr;
  22:src/../h/list.hpp ****     int size=0;
  23:src/../h/list.hpp **** public:
  24:src/../h/list.hpp ****     List() : head(0), tail(0) {}
  81              		.loc 3 24 29
  82 0084 23BC0402 		sd	zero,56(s1)
  83 0088 23B00404 		sd	zero,64(s1)
  84 008c 23B40404 		sd	zero,72(s1)
  85 0090 23A80404 		sw	zero,80(s1)
  86              	.LVL6:
  87              	.LBE27:
  88              	.LBE26:
  50:src/../h/tcb.hpp ****     {
  51:src/../h/tcb.hpp ****         if (body != nullptr) { Scheduler::put(this); }
  89              		.loc 2 51 9 is_stmt 1
  90 0094 630C0902 		beqz	s2,.L1
  91              		.loc 2 51 32
  92              		.loc 2 51 46 is_stmt 0
  93 0098 13850400 		mv	a0,s1
  94 009c 97000000 		call	_ZN9Scheduler3putEP3TCB@plt
  94      E7800000 
  95              	.LVL7:
  96              	.LEHE1:
  97 00a4 6F008002 		j	.L1
  98              	.L7:
  45:src/../h/tcb.hpp ****                     }),
  99              		.loc 2 45 39
 100 00a8 93070000 		li	a5,0
 101 00ac 6FF05FFC 		j	.L3
 102              	.L8:
 103 00b0 13090500 		mv	s2,a0
 104              	.LVL8:
 105              	.LBE25:
 106              	.LBE24:
 107              		.loc 1 16 40
 108 00b4 13850400 		mv	a0,s1
 109 00b8 97000000 		call	_ZdlPv@plt
 109      E7800000 
 110              	.LVL9:
 111 00c0 13050900 		mv	a0,s2
 112              	.LEHB2:
 113 00c4 97000000 		call	_Unwind_Resume@plt
 113      E7800000 
 114              	.LVL10:
 115              	.LEHE2:
 116              	.L1:
  17:src/tcb.cpp   **** }
 117              		.loc 1 17 1
 118 00cc 13850400 		mv	a0,s1
 119 00d0 83308102 		ld	ra,40(sp)
 120              		.cfi_restore 1
 121 00d4 03340102 		ld	s0,32(sp)
 122              		.cfi_restore 8
 123              		.cfi_def_cfa 2, 48
 124 00d8 83348101 		ld	s1,24(sp)
 125              		.cfi_restore 9
GAS LISTING /tmp/ccxWC9L2.s 			page 5


 126              	.LVL11:
 127 00dc 03390101 		ld	s2,16(sp)
 128              		.cfi_restore 18
 129              	.LVL12:
 130 00e0 83398100 		ld	s3,8(sp)
 131              		.cfi_restore 19
 132              	.LVL13:
 133 00e4 13010103 		addi	sp,sp,48
 134              		.cfi_def_cfa_offset 0
 135 00e8 67800000 		jr	ra
 136              		.cfi_endproc
 137              	.LFE40:
 138              		.globl	__gxx_personality_v0
 139              		.section	.gcc_except_table,"a",@progbits
 140              	.LLSDA40:
 141 0000 FF       		.byte	0xff
 142 0001 FF       		.byte	0xff
 143 0002 03       		.byte	0x3
 144 0003 27       		.byte	0x27
 145 0004 00000000 		.4byte	.LEHB0-.LFB40
 146 0008 00000000 		.4byte	.LEHE0-.LEHB0
 147 000c 00000000 		.4byte	0
 148 0010 00       		.byte	0
 149 0011 00000000 		.4byte	.LEHB1-.LFB40
 150 0015 00000000 		.4byte	.LEHE1-.LEHB1
 151 0019 00000000 		.4byte	.L8-.LFB40
 152 001d 00       		.byte	0
 153 001e 00000000 		.4byte	.LEHB2-.LFB40
 154 0022 00000000 		.4byte	.LEHE2-.LEHB2
 155 0026 00000000 		.4byte	0
 156 002a 00       		.byte	0
 157              		.text
 159              		.align	2
 160              		.globl	_ZN3TCB5yieldEv
 162              	_ZN3TCB5yieldEv:
 163              	.LFB41:
  18:src/tcb.cpp   **** 
  19:src/tcb.cpp   **** void TCB::yield()
  20:src/tcb.cpp   **** {
 164              		.loc 1 20 1 is_stmt 1
 165              		.cfi_startproc
 166 00ec 130101FF 		addi	sp,sp,-16
 167              		.cfi_def_cfa_offset 16
 168 00f0 23341100 		sd	ra,8(sp)
 169 00f4 23308100 		sd	s0,0(sp)
 170              		.cfi_offset 1, -8
 171              		.cfi_offset 8, -16
 172 00f8 13040101 		addi	s0,sp,16
 173              		.cfi_def_cfa 8, 0
  21:src/tcb.cpp   ****     thread_dispatch();
 174              		.loc 1 21 5
 175              		.loc 1 21 20 is_stmt 0
 176 00fc 97000000 		call	_Z15thread_dispatchv@plt
 176      E7800000 
 177              	.LVL14:
  22:src/tcb.cpp   **** }
 178              		.loc 1 22 1
GAS LISTING /tmp/ccxWC9L2.s 			page 6


 179 0104 83308100 		ld	ra,8(sp)
 180              		.cfi_restore 1
 181 0108 03340100 		ld	s0,0(sp)
 182              		.cfi_restore 8
 183              		.cfi_def_cfa 2, 16
 184 010c 13010101 		addi	sp,sp,16
 185              		.cfi_def_cfa_offset 0
 186 0110 67800000 		jr	ra
 187              		.cfi_endproc
 188              	.LFE41:
 190              		.align	2
 191              		.globl	_ZN3TCB8dispatchEv
 193              	_ZN3TCB8dispatchEv:
 194              	.LFB42:
  23:src/tcb.cpp   **** 
  24:src/tcb.cpp   **** void TCB::dispatch()
  25:src/tcb.cpp   **** {
 195              		.loc 1 25 1 is_stmt 1
 196              		.cfi_startproc
 197 0114 130101FE 		addi	sp,sp,-32
 198              		.cfi_def_cfa_offset 32
 199 0118 233C1100 		sd	ra,24(sp)
 200 011c 23388100 		sd	s0,16(sp)
 201 0120 23349100 		sd	s1,8(sp)
 202              		.cfi_offset 1, -8
 203              		.cfi_offset 8, -16
 204              		.cfi_offset 9, -24
 205 0124 13040102 		addi	s0,sp,32
 206              		.cfi_def_cfa 8, 0
  26:src/tcb.cpp   ****     TCB *old = running;
 207              		.loc 1 26 5
 208              		.loc 1 26 10 is_stmt 0
 209 0128 97040000 		ld	s1,.LANCHOR0
 209      83B40400 
 210              	.LVL15:
  27:src/tcb.cpp   ****     if (!old->isFinished()&& !old->isBlocked()) { Scheduler::put(old); }
 211              		.loc 1 27 5 is_stmt 1
 212              	.LBB28:
 213              	.LBB29:
  17:src/../h/tcb.hpp **** 
 214              		.loc 2 17 31
  17:src/../h/tcb.hpp **** 
 215              		.loc 2 17 38 is_stmt 0
 216 0130 83C70403 		lbu	a5,48(s1)
 217              	.LVL16:
 218              	.LBE29:
 219              	.LBE28:
 220              		.loc 1 27 27
 221 0134 63960700 		bnez	a5,.L13
 222              	.LVL17:
 223              	.LBB30:
 224              	.LBB31:
  35:src/../h/tcb.hpp **** 
 225              		.loc 2 35 24 is_stmt 1
  35:src/../h/tcb.hpp **** 
 226              		.loc 2 35 31 is_stmt 0
 227 0138 83C71403 		lbu	a5,49(s1)
GAS LISTING /tmp/ccxWC9L2.s 			page 7


 228              	.LVL18:
 229              	.LBE31:
 230              	.LBE30:
 231              		.loc 1 27 27
 232 013c 638C0702 		beqz	a5,.L15
 233              	.L13:
  28:src/tcb.cpp   ****     running = Scheduler::get();
 234              		.loc 1 28 5 is_stmt 1
 235              		.loc 1 28 29 is_stmt 0
 236 0140 97000000 		call	_ZN9Scheduler3getEv@plt
 236      E7800000 
 237              	.LVL19:
 238              		.loc 1 28 13
 239 0148 97070000 		sd	a0,.LANCHOR0,a5
 239      23B0A700 
  29:src/tcb.cpp   **** 
  30:src/tcb.cpp   ****     TCB::contextSwitch(&old->context, &running->context);
 240              		.loc 1 30 5 is_stmt 1
 241              		.loc 1 30 23 is_stmt 0
 242 0150 93058501 		addi	a1,a0,24
 243 0154 13858401 		addi	a0,s1,24
 244 0158 97000000 		call	_ZN3TCB13contextSwitchEPNS_7ContextES1_@plt
 244      E7800000 
 245              	.LVL20:
  31:src/tcb.cpp   **** 
  32:src/tcb.cpp   **** 
  33:src/tcb.cpp   **** }
 246              		.loc 1 33 1
 247 0160 83308101 		ld	ra,24(sp)
 248              		.cfi_remember_state
 249              		.cfi_restore 1
 250 0164 03340101 		ld	s0,16(sp)
 251              		.cfi_restore 8
 252              		.cfi_def_cfa 2, 32
 253 0168 83348100 		ld	s1,8(sp)
 254              		.cfi_restore 9
 255              	.LVL21:
 256 016c 13010102 		addi	sp,sp,32
 257              		.cfi_def_cfa_offset 0
 258 0170 67800000 		jr	ra
 259              	.LVL22:
 260              	.L15:
 261              		.cfi_restore_state
  27:src/tcb.cpp   ****     running = Scheduler::get();
 262              		.loc 1 27 51 is_stmt 1
  27:src/tcb.cpp   ****     running = Scheduler::get();
 263              		.loc 1 27 65 is_stmt 0
 264 0174 13850400 		mv	a0,s1
 265 0178 97000000 		call	_ZN9Scheduler3putEP3TCB@plt
 265      E7800000 
 266              	.LVL23:
 267 0180 6FF01FFC 		j	.L13
 268              		.cfi_endproc
 269              	.LFE42:
 271              		.align	2
 272              		.globl	_ZN3TCB5blockEPS_
 274              	_ZN3TCB5blockEPS_:
GAS LISTING /tmp/ccxWC9L2.s 			page 8


 275              	.LFB44:
  34:src/tcb.cpp   **** 
  35:src/tcb.cpp   **** void TCB::threadWrapper()
  36:src/tcb.cpp   **** {
  37:src/tcb.cpp   ****     Riscv::popSppSpie();
  38:src/tcb.cpp   ****     running->body(running->arg);
  39:src/tcb.cpp   ****     running->setFinished(true);
  40:src/tcb.cpp   ****     running->unblock();
  41:src/tcb.cpp   ****     TCB::yield();
  42:src/tcb.cpp   **** }
  43:src/tcb.cpp   **** 
  44:src/tcb.cpp   **** void TCB::block(TCB *thread) {
 276              		.loc 1 44 30 is_stmt 1
 277              		.cfi_startproc
 278              	.LVL24:
 279 0184 130101FD 		addi	sp,sp,-48
 280              		.cfi_def_cfa_offset 48
 281 0188 23341102 		sd	ra,40(sp)
 282 018c 23308102 		sd	s0,32(sp)
 283 0190 233C9100 		sd	s1,24(sp)
 284 0194 23382101 		sd	s2,16(sp)
 285 0198 23343101 		sd	s3,8(sp)
 286              		.cfi_offset 1, -8
 287              		.cfi_offset 8, -16
 288              		.cfi_offset 9, -24
 289              		.cfi_offset 18, -32
 290              		.cfi_offset 19, -40
 291 019c 13040103 		addi	s0,sp,48
 292              		.cfi_def_cfa 8, 0
 293 01a0 13090500 		mv	s2,a0
 294 01a4 93890500 		mv	s3,a1
  45:src/tcb.cpp   **** 
  46:src/tcb.cpp   ****     blockedQueue.addLast(thread);
 295              		.loc 1 46 5
 296              		.loc 1 46 25 is_stmt 0
 297 01a8 93048503 		addi	s1,a0,56
 298              	.LVL25:
 299              	.LBB37:
 300              	.LBB38:
  25:src/../h/list.hpp **** 
  26:src/../h/list.hpp ****     List(const List<T> &) = delete;
  27:src/../h/list.hpp **** 
  28:src/../h/list.hpp ****     List<T> &operator=(const List<T> &) = delete;
  29:src/../h/list.hpp **** 
  30:src/../h/list.hpp ****     void first () {
  31:src/../h/list.hpp ****         iterator=head;
  32:src/../h/list.hpp ****     }
  33:src/../h/list.hpp ****     int next () {
  34:src/../h/list.hpp ****         if (iterator==tail){
  35:src/../h/list.hpp ****             return -1;
  36:src/../h/list.hpp ****         }
  37:src/../h/list.hpp ****         iterator=iterator->next;
  38:src/../h/list.hpp ****         return 0;
  39:src/../h/list.hpp ****     }
  40:src/../h/list.hpp ****     T* getIter(){
  41:src/../h/list.hpp ****         return  iterator->data;
  42:src/../h/list.hpp ****     }
GAS LISTING /tmp/ccxWC9L2.s 			page 9


  43:src/../h/list.hpp **** 
  44:src/../h/list.hpp ****     void removeIter(){
  45:src/../h/list.hpp **** 
  46:src/../h/list.hpp ****     }
  47:src/../h/list.hpp ****     void addFirst(T *data)
  48:src/../h/list.hpp ****     {
  49:src/../h/list.hpp ****         Elem *elem = new Elem(data, head);
  50:src/../h/list.hpp ****         head = elem;
  51:src/../h/list.hpp ****         iterator = elem;
  52:src/../h/list.hpp ****         if (!tail) { tail = head; }
  53:src/../h/list.hpp ****         size++;
  54:src/../h/list.hpp ****     }
  55:src/../h/list.hpp **** 
  56:src/../h/list.hpp ****     void addLast(T *data)
  57:src/../h/list.hpp ****     {
  58:src/../h/list.hpp ****         Elem *elem = new Elem(data, 0);
 301              		.loc 3 58 22
 302 01ac 13050001 		li	a0,16
 303              	.LVL26:
 304 01b0 97000000 		call	_Znwm@plt
 304      E7800000 
 305              	.LVL27:
 306              	.LBB39:
 307              	.LBB40:
  17:src/../h/list.hpp ****     };
 308              		.loc 3 17 58
 309 01b8 23303501 		sd	s3,0(a0)
 310 01bc 23340500 		sd	zero,8(a0)
 311              	.LVL28:
 312              	.LBE40:
 313              	.LBE39:
  59:src/../h/list.hpp ****         if (tail)
 314              		.loc 3 59 13
 315 01c0 83B78400 		ld	a5,8(s1)
 316              		.loc 3 59 9
 317 01c4 638A0702 		beqz	a5,.L17
  60:src/../h/list.hpp ****         {
  61:src/../h/list.hpp ****             tail->next = elem;
 318              		.loc 3 61 13
 319 01c8 23B4A700 		sd	a0,8(a5)
  62:src/../h/list.hpp ****             tail = elem;
 320              		.loc 3 62 13
 321 01cc 23B4A400 		sd	a0,8(s1)
 322              	.L18:
  63:src/../h/list.hpp ****         } else
  64:src/../h/list.hpp ****         {
  65:src/../h/list.hpp ****             head = tail = elem;
  66:src/../h/list.hpp ****         }
  67:src/../h/list.hpp ****         size++;
 323              		.loc 3 67 9
 324 01d0 83A78401 		lw	a5,24(s1)
 325 01d4 9B871700 		addiw	a5,a5,1
 326 01d8 23ACF400 		sw	a5,24(s1)
 327              	.LVL29:
 328              	.LBE38:
 329              	.LBE37:
  47:src/tcb.cpp   **** }
GAS LISTING /tmp/ccxWC9L2.s 			page 10


 330              		.loc 1 47 1
 331 01dc 83308102 		ld	ra,40(sp)
 332              		.cfi_remember_state
 333              		.cfi_restore 1
 334 01e0 03340102 		ld	s0,32(sp)
 335              		.cfi_restore 8
 336              		.cfi_def_cfa 2, 48
 337 01e4 83348101 		ld	s1,24(sp)
 338              		.cfi_restore 9
 339 01e8 03390101 		ld	s2,16(sp)
 340              		.cfi_restore 18
 341              	.LVL30:
 342 01ec 83398100 		ld	s3,8(sp)
 343              		.cfi_restore 19
 344              	.LVL31:
 345 01f0 13010103 		addi	sp,sp,48
 346              		.cfi_def_cfa_offset 0
 347 01f4 67800000 		jr	ra
 348              	.LVL32:
 349              	.L17:
 350              		.cfi_restore_state
 351              	.LBB42:
 352              	.LBB41:
  65:src/../h/list.hpp ****         }
 353              		.loc 3 65 13
 354 01f8 23B4A400 		sd	a0,8(s1)
 355 01fc 233CA902 		sd	a0,56(s2)
 356 0200 6FF01FFD 		j	.L18
 357              	.LBE41:
 358              	.LBE42:
 359              		.cfi_endproc
 360              	.LFE44:
 362              		.align	2
 363              		.globl	_ZN3TCB7unblockEv
 365              	_ZN3TCB7unblockEv:
 366              	.LFB45:
  48:src/tcb.cpp   **** 
  49:src/tcb.cpp   **** void TCB::unblock() {
 367              		.loc 1 49 21 is_stmt 1
 368              		.cfi_startproc
 369              	.LVL33:
 370 0204 130101FD 		addi	sp,sp,-48
 371              		.cfi_def_cfa_offset 48
 372 0208 23341102 		sd	ra,40(sp)
 373 020c 23308102 		sd	s0,32(sp)
 374 0210 233C9100 		sd	s1,24(sp)
 375 0214 23382101 		sd	s2,16(sp)
 376 0218 23343101 		sd	s3,8(sp)
 377              		.cfi_offset 1, -8
 378              		.cfi_offset 8, -16
 379              		.cfi_offset 9, -24
 380              		.cfi_offset 18, -32
 381              		.cfi_offset 19, -40
 382 021c 13040103 		addi	s0,sp,48
 383              		.cfi_def_cfa 8, 0
 384 0220 93040500 		mv	s1,a0
 385 0224 6F00C002 		j	.L24
GAS LISTING /tmp/ccxWC9L2.s 			page 11


 386              	.LVL34:
 387              	.L27:
 388              	.LBB48:
 389              	.LBB49:
 390              	.LBB50:
  68:src/../h/list.hpp ****     }
  69:src/../h/list.hpp **** 
  70:src/../h/list.hpp ****     T *removeFirst()
  71:src/../h/list.hpp ****     {
  72:src/../h/list.hpp ****         if (!head) { return 0; }
  73:src/../h/list.hpp **** 
  74:src/../h/list.hpp ****         Elem *elem = head;
  75:src/../h/list.hpp ****         head = head->next;
  76:src/../h/list.hpp ****         if (!head) { tail = 0; }
 391              		.loc 3 76 22 is_stmt 0
 392 0228 23340900 		sd	zero,8(s2)
 393              	.L23:
  77:src/../h/list.hpp **** 
  78:src/../h/list.hpp ****         T *ret = elem->data;
 394              		.loc 3 78 12
 395 022c 83390500 		ld	s3,0(a0)
 396              	.LVL35:
  79:src/../h/list.hpp ****         delete elem;
 397              		.loc 3 79 9
 398 0230 97000000 		call	_ZdlPv@plt
 398      E7800000 
 399              	.LVL36:
  80:src/../h/list.hpp ****         size--;
 400              		.loc 3 80 9
 401 0238 83278901 		lw	a5,24(s2)
 402 023c 9B87F7FF 		addiw	a5,a5,-1
 403 0240 232CF900 		sw	a5,24(s2)
 404              	.LVL37:
 405              	.L22:
 406              	.LBE50:
 407              	.LBE49:
  50:src/tcb.cpp   ****     while(blockedQueue.getSize()>0){
  51:src/tcb.cpp   ****         TCB* t=blockedQueue.removeFirst();
  52:src/tcb.cpp   ****         Scheduler::put(t);
 408              		.loc 1 52 9 is_stmt 1
 409              		.loc 1 52 23 is_stmt 0
 410 0244 13850900 		mv	a0,s3
 411 0248 97000000 		call	_ZN9Scheduler3putEP3TCB@plt
 411      E7800000 
 412              	.LVL38:
 413              	.L24:
 414              	.LBE48:
  50:src/tcb.cpp   ****     while(blockedQueue.getSize()>0){
 415              		.loc 1 50 5 is_stmt 1
  50:src/tcb.cpp   ****     while(blockedQueue.getSize()>0){
 416              		.loc 1 50 33
 417              	.LBB53:
 418              	.LBB54:
  81:src/../h/list.hpp ****         return ret;
  82:src/../h/list.hpp ****     }
  83:src/../h/list.hpp **** 
  84:src/../h/list.hpp ****     T *peekFirst()
GAS LISTING /tmp/ccxWC9L2.s 			page 12


  85:src/../h/list.hpp ****     {
  86:src/../h/list.hpp ****         if (!head) { return 0; }
  87:src/../h/list.hpp ****         return head->data;
  88:src/../h/list.hpp ****     }
  89:src/../h/list.hpp **** 
  90:src/../h/list.hpp ****     T *removeLast()
  91:src/../h/list.hpp ****     {
  92:src/../h/list.hpp ****         if (!head) { return 0; }
  93:src/../h/list.hpp **** 
  94:src/../h/list.hpp ****         Elem *prev = 0;
  95:src/../h/list.hpp ****         for (Elem *curr = head; curr && curr != tail; curr = curr->next)
  96:src/../h/list.hpp ****         {
  97:src/../h/list.hpp ****             prev = curr;
  98:src/../h/list.hpp ****         }
  99:src/../h/list.hpp **** 
 100:src/../h/list.hpp ****         Elem *elem = tail;
 101:src/../h/list.hpp ****         if (prev) { prev->next = 0; }
 102:src/../h/list.hpp ****         else { head = 0; }
 103:src/../h/list.hpp ****         tail = prev;
 104:src/../h/list.hpp **** 
 105:src/../h/list.hpp ****         T *ret = elem->data;
 106:src/../h/list.hpp ****         delete elem;
 107:src/../h/list.hpp ****         size--;
 108:src/../h/list.hpp ****         return ret;
 109:src/../h/list.hpp ****     }
 110:src/../h/list.hpp **** 
 111:src/../h/list.hpp ****     T *peekLast()
 112:src/../h/list.hpp ****     {
 113:src/../h/list.hpp ****         if (!tail) { return 0; }
 114:src/../h/list.hpp ****         return tail->data;
 115:src/../h/list.hpp ****     }
 116:src/../h/list.hpp **** 
 117:src/../h/list.hpp ****     int getSize(){return size;}
 419              		.loc 3 117 26 is_stmt 0
 420 0250 83A70405 		lw	a5,80(s1)
 421              	.LVL39:
 422              	.LBE54:
 423              	.LBE53:
  50:src/tcb.cpp   ****     while(blockedQueue.getSize()>0){
 424              		.loc 1 50 33
 425 0254 6354F002 		blez	a5,.L20
 426              	.LBB55:
  51:src/tcb.cpp   ****         Scheduler::put(t);
 427              		.loc 1 51 9 is_stmt 1
  51:src/tcb.cpp   ****         Scheduler::put(t);
 428              		.loc 1 51 40 is_stmt 0
 429 0258 13898403 		addi	s2,s1,56
 430              	.LVL40:
 431              	.LBB52:
 432              	.LBB51:
  72:src/../h/list.hpp **** 
 433              		.loc 3 72 14
 434 025c 03B58403 		ld	a0,56(s1)
  72:src/../h/list.hpp **** 
 435              		.loc 3 72 9
 436 0260 630A0500 		beqz	a0,.L25
 437              	.LVL41:
GAS LISTING /tmp/ccxWC9L2.s 			page 13


  75:src/../h/list.hpp ****         if (!head) { tail = 0; }
 438              		.loc 3 75 22
 439 0264 83378500 		ld	a5,8(a0)
  75:src/../h/list.hpp ****         if (!head) { tail = 0; }
 440              		.loc 3 75 9
 441 0268 23BCF402 		sd	a5,56(s1)
  76:src/../h/list.hpp **** 
 442              		.loc 3 76 9
 443 026c E39007FC 		bnez	a5,.L23
 444 0270 6FF09FFB 		j	.L27
 445              	.LVL42:
 446              	.L25:
  72:src/../h/list.hpp **** 
 447              		.loc 3 72 29
 448 0274 93090500 		mv	s3,a0
 449 0278 6FF0DFFC 		j	.L22
 450              	.LVL43:
 451              	.L20:
 452              	.LBE51:
 453              	.LBE52:
 454              	.LBE55:
  53:src/tcb.cpp   ****     }
  54:src/tcb.cpp   **** 
  55:src/tcb.cpp   **** }
 455              		.loc 1 55 1
 456 027c 83308102 		ld	ra,40(sp)
 457              		.cfi_restore 1
 458 0280 03340102 		ld	s0,32(sp)
 459              		.cfi_restore 8
 460              		.cfi_def_cfa 2, 48
 461 0284 83348101 		ld	s1,24(sp)
 462              		.cfi_restore 9
 463              	.LVL44:
 464 0288 03390101 		ld	s2,16(sp)
 465              		.cfi_restore 18
 466 028c 83398100 		ld	s3,8(sp)
 467              		.cfi_restore 19
 468 0290 13010103 		addi	sp,sp,48
 469              		.cfi_def_cfa_offset 0
 470 0294 67800000 		jr	ra
 471              		.cfi_endproc
 472              	.LFE45:
 474              		.align	2
 475              		.globl	_ZN3TCB13threadWrapperEv
 477              	_ZN3TCB13threadWrapperEv:
 478              	.LFB43:
  36:src/tcb.cpp   ****     Riscv::popSppSpie();
 479              		.loc 1 36 1 is_stmt 1
 480              		.cfi_startproc
 481 0298 130101FE 		addi	sp,sp,-32
 482              		.cfi_def_cfa_offset 32
 483 029c 233C1100 		sd	ra,24(sp)
 484 02a0 23388100 		sd	s0,16(sp)
 485 02a4 23349100 		sd	s1,8(sp)
 486              		.cfi_offset 1, -8
 487              		.cfi_offset 8, -16
 488              		.cfi_offset 9, -24
GAS LISTING /tmp/ccxWC9L2.s 			page 14


 489 02a8 13040102 		addi	s0,sp,32
 490              		.cfi_def_cfa 8, 0
  37:src/tcb.cpp   ****     running->body(running->arg);
 491              		.loc 1 37 5
  37:src/tcb.cpp   ****     running->body(running->arg);
 492              		.loc 1 37 22 is_stmt 0
 493 02ac 97000000 		call	_ZN5Riscv10popSppSpieEv@plt
 493      E7800000 
 494              	.LVL45:
  38:src/tcb.cpp   ****     running->setFinished(true);
 495              		.loc 1 38 5 is_stmt 1
  38:src/tcb.cpp   ****     running->setFinished(true);
 496              		.loc 1 38 14 is_stmt 0
 497 02b4 97040000 		lla	s1,.LANCHOR0
 497      93840400 
 498 02bc 83B70400 		ld	a5,0(s1)
 499 02c0 03B78700 		ld	a4,8(a5)
  38:src/tcb.cpp   ****     running->setFinished(true);
 500              		.loc 1 38 18
 501 02c4 03B50700 		ld	a0,0(a5)
 502 02c8 E7000700 		jalr	a4
 503              	.LVL46:
  39:src/tcb.cpp   ****     running->unblock();
 504              		.loc 1 39 5 is_stmt 1
  39:src/tcb.cpp   ****     running->unblock();
 505              		.loc 1 39 25 is_stmt 0
 506 02cc 03B50400 		ld	a0,0(s1)
 507              	.LVL47:
 508              	.LBB56:
 509              	.LBB57:
  19:src/../h/tcb.hpp **** 
 510              		.loc 2 19 36 is_stmt 1
  19:src/../h/tcb.hpp **** 
 511              		.loc 2 19 45 is_stmt 0
 512 02d0 93071000 		li	a5,1
 513 02d4 2308F502 		sb	a5,48(a0)
 514              	.LVL48:
 515              	.LBE57:
 516              	.LBE56:
  40:src/tcb.cpp   ****     TCB::yield();
 517              		.loc 1 40 5 is_stmt 1
  40:src/tcb.cpp   ****     TCB::yield();
 518              		.loc 1 40 21 is_stmt 0
 519 02d8 97000000 		call	_ZN3TCB7unblockEv
 519      E7800000 
 520              	.LVL49:
  41:src/tcb.cpp   **** }
 521              		.loc 1 41 5 is_stmt 1
  41:src/tcb.cpp   **** }
 522              		.loc 1 41 15 is_stmt 0
 523 02e0 97000000 		call	_ZN3TCB5yieldEv
 523      E7800000 
 524              	.LVL50:
  42:src/tcb.cpp   **** 
 525              		.loc 1 42 1
 526 02e8 83308101 		ld	ra,24(sp)
 527              		.cfi_restore 1
GAS LISTING /tmp/ccxWC9L2.s 			page 15


 528 02ec 03340101 		ld	s0,16(sp)
 529              		.cfi_restore 8
 530              		.cfi_def_cfa 2, 32
 531 02f0 83348100 		ld	s1,8(sp)
 532              		.cfi_restore 9
 533 02f4 13010102 		addi	sp,sp,32
 534              		.cfi_def_cfa_offset 0
 535 02f8 67800000 		jr	ra
 536              		.cfi_endproc
 537              	.LFE43:
 539              		.globl	_ZN3TCB16timeSliceCounterE
 540              		.globl	_ZN3TCB7runningE
 541              		.bss
 542              		.align	3
 543              		.set	.LANCHOR0,. + 0
 546              	_ZN3TCB7runningE:
 547 0000 00000000 		.zero	8
 547      00000000 
 550              	_ZN3TCB16timeSliceCounterE:
 551 0008 00000000 		.zero	8
 551      00000000 
 552              		.text
 553              	.Letext0:
 554              		.file 4 "src/../h/../lib/hw.h"
 555              		.file 5 "src/../h/scheduler.hpp"
 556              		.file 6 "src/../h/riscv.hpp"
 557              		.file 7 "src/../h/syscall_c.hpp"
 3949              		.align	3
 3952              	DW.ref.__gxx_personality_v0:
 3953 0000 00000000 		.dword	__gxx_personality_v0
 3953      00000000 
 3954              		.ident	"GCC: (Ubuntu 9.4.0-1ubuntu1~20.04) 9.4.0"
 3955              		.section	.note.GNU-stack,"",@progbits
GAS LISTING /tmp/ccxWC9L2.s 			page 16


DEFINED SYMBOLS
                            *ABS*:0000000000000000 tcb.cpp
     /tmp/ccxWC9L2.s:9      .text:0000000000000000 _ZN3TCB12createThreadEPFvPvES0_
     /tmp/ccxWC9L2.s:13     .text:0000000000000000 .L0 
     /tmp/ccxWC9L2.s:3952   .data.rel.local.DW.ref.__gxx_personality_v0:0000000000000000 DW.ref.__gxx_personality_v0
     /tmp/ccxWC9L2.s:17     .text:0000000000000000 .L0 
     /tmp/ccxWC9L2.s:18     .text:0000000000000004 .L0 
     /tmp/ccxWC9L2.s:24     .text:0000000000000018 .L0 
     /tmp/ccxWC9L2.s:25     .text:0000000000000018 .L0 
     /tmp/ccxWC9L2.s:26     .text:0000000000000018 .L0 
     /tmp/ccxWC9L2.s:27     .text:0000000000000018 .L0 
     /tmp/ccxWC9L2.s:28     .text:0000000000000018 .L0 
     /tmp/ccxWC9L2.s:30     .text:000000000000001c .L0 
     /tmp/ccxWC9L2.s:34     .text:0000000000000024 .L0 
     /tmp/ccxWC9L2.s:35     .text:0000000000000024 .L0 
     /tmp/ccxWC9L2.s:47     .text:0000000000000034 .L0 
     /tmp/ccxWC9L2.s:50     .text:000000000000003c .L0 
     /tmp/ccxWC9L2.s:52     .text:0000000000000040 .L0 
     /tmp/ccxWC9L2.s:59     .text:0000000000000050 .L0 
     /tmp/ccxWC9L2.s:62     .text:0000000000000054 .L0 
     /tmp/ccxWC9L2.s:477    .text:0000000000000298 _ZN3TCB13threadWrapperEv
     /tmp/ccxWC9L2.s:66     .text:0000000000000064 .L0 
     /tmp/ccxWC9L2.s:68     .text:0000000000000068 .L0 
     /tmp/ccxWC9L2.s:72     .text:0000000000000070 .L0 
     /tmp/ccxWC9L2.s:82     .text:0000000000000084 .L0 
     /tmp/ccxWC9L2.s:90     .text:0000000000000094 .L0 
     /tmp/ccxWC9L2.s:92     .text:0000000000000098 .L0 
     /tmp/ccxWC9L2.s:93     .text:0000000000000098 .L0 
     /tmp/ccxWC9L2.s:100    .text:00000000000000a8 .L0 
     /tmp/ccxWC9L2.s:108    .text:00000000000000b4 .L0 
     /tmp/ccxWC9L2.s:118    .text:00000000000000cc .L0 
     /tmp/ccxWC9L2.s:120    .text:00000000000000d4 .L0 
     /tmp/ccxWC9L2.s:122    .text:00000000000000d8 .L0 
     /tmp/ccxWC9L2.s:123    .text:00000000000000d8 .L0 
     /tmp/ccxWC9L2.s:125    .text:00000000000000dc .L0 
     /tmp/ccxWC9L2.s:128    .text:00000000000000e0 .L0 
     /tmp/ccxWC9L2.s:131    .text:00000000000000e4 .L0 
     /tmp/ccxWC9L2.s:134    .text:00000000000000e8 .L0 
     /tmp/ccxWC9L2.s:136    .text:00000000000000ec .L0 
     /tmp/ccxWC9L2.s:162    .text:00000000000000ec _ZN3TCB5yieldEv
     /tmp/ccxWC9L2.s:165    .text:00000000000000ec .L0 
     /tmp/ccxWC9L2.s:166    .text:00000000000000ec .L0 
     /tmp/ccxWC9L2.s:167    .text:00000000000000f0 .L0 
     /tmp/ccxWC9L2.s:170    .text:00000000000000f8 .L0 
     /tmp/ccxWC9L2.s:171    .text:00000000000000f8 .L0 
     /tmp/ccxWC9L2.s:173    .text:00000000000000fc .L0 
     /tmp/ccxWC9L2.s:175    .text:00000000000000fc .L0 
     /tmp/ccxWC9L2.s:176    .text:00000000000000fc .L0 
     /tmp/ccxWC9L2.s:179    .text:0000000000000104 .L0 
     /tmp/ccxWC9L2.s:180    .text:0000000000000108 .L0 
     /tmp/ccxWC9L2.s:182    .text:000000000000010c .L0 
     /tmp/ccxWC9L2.s:183    .text:000000000000010c .L0 
     /tmp/ccxWC9L2.s:185    .text:0000000000000110 .L0 
     /tmp/ccxWC9L2.s:187    .text:0000000000000114 .L0 
     /tmp/ccxWC9L2.s:193    .text:0000000000000114 _ZN3TCB8dispatchEv
     /tmp/ccxWC9L2.s:196    .text:0000000000000114 .L0 
     /tmp/ccxWC9L2.s:197    .text:0000000000000114 .L0 
GAS LISTING /tmp/ccxWC9L2.s 			page 17


     /tmp/ccxWC9L2.s:198    .text:0000000000000118 .L0 
     /tmp/ccxWC9L2.s:202    .text:0000000000000124 .L0 
     /tmp/ccxWC9L2.s:203    .text:0000000000000124 .L0 
     /tmp/ccxWC9L2.s:204    .text:0000000000000124 .L0 
     /tmp/ccxWC9L2.s:206    .text:0000000000000128 .L0 
     /tmp/ccxWC9L2.s:208    .text:0000000000000128 .L0 
     /tmp/ccxWC9L2.s:209    .text:0000000000000128 .L0 
     /tmp/ccxWC9L2.s:214    .text:0000000000000130 .L0 
     /tmp/ccxWC9L2.s:215    .text:0000000000000130 .L0 
     /tmp/ccxWC9L2.s:216    .text:0000000000000130 .L0 
     /tmp/ccxWC9L2.s:221    .text:0000000000000134 .L0 
     /tmp/ccxWC9L2.s:226    .text:0000000000000138 .L0 
     /tmp/ccxWC9L2.s:227    .text:0000000000000138 .L0 
     /tmp/ccxWC9L2.s:232    .text:000000000000013c .L0 
     /tmp/ccxWC9L2.s:235    .text:0000000000000140 .L0 
     /tmp/ccxWC9L2.s:236    .text:0000000000000140 .L0 
     /tmp/ccxWC9L2.s:239    .text:0000000000000148 .L0 
     /tmp/ccxWC9L2.s:241    .text:0000000000000150 .L0 
     /tmp/ccxWC9L2.s:242    .text:0000000000000150 .L0 
     /tmp/ccxWC9L2.s:247    .text:0000000000000160 .L0 
     /tmp/ccxWC9L2.s:248    .text:0000000000000164 .L0 
     /tmp/ccxWC9L2.s:249    .text:0000000000000164 .L0 
     /tmp/ccxWC9L2.s:251    .text:0000000000000168 .L0 
     /tmp/ccxWC9L2.s:252    .text:0000000000000168 .L0 
     /tmp/ccxWC9L2.s:254    .text:000000000000016c .L0 
     /tmp/ccxWC9L2.s:257    .text:0000000000000170 .L0 
     /tmp/ccxWC9L2.s:261    .text:0000000000000174 .L0 
     /tmp/ccxWC9L2.s:263    .text:0000000000000174 .L0 
     /tmp/ccxWC9L2.s:264    .text:0000000000000174 .L0 
     /tmp/ccxWC9L2.s:268    .text:0000000000000184 .L0 
     /tmp/ccxWC9L2.s:274    .text:0000000000000184 _ZN3TCB5blockEPS_
     /tmp/ccxWC9L2.s:277    .text:0000000000000184 .L0 
     /tmp/ccxWC9L2.s:279    .text:0000000000000184 .L0 
     /tmp/ccxWC9L2.s:280    .text:0000000000000188 .L0 
     /tmp/ccxWC9L2.s:286    .text:000000000000019c .L0 
     /tmp/ccxWC9L2.s:287    .text:000000000000019c .L0 
     /tmp/ccxWC9L2.s:288    .text:000000000000019c .L0 
     /tmp/ccxWC9L2.s:289    .text:000000000000019c .L0 
     /tmp/ccxWC9L2.s:290    .text:000000000000019c .L0 
     /tmp/ccxWC9L2.s:292    .text:00000000000001a0 .L0 
     /tmp/ccxWC9L2.s:296    .text:00000000000001a8 .L0 
     /tmp/ccxWC9L2.s:297    .text:00000000000001a8 .L0 
     /tmp/ccxWC9L2.s:302    .text:00000000000001ac .L0 
     /tmp/ccxWC9L2.s:309    .text:00000000000001b8 .L0 
     /tmp/ccxWC9L2.s:315    .text:00000000000001c0 .L0 
     /tmp/ccxWC9L2.s:317    .text:00000000000001c4 .L0 
     /tmp/ccxWC9L2.s:319    .text:00000000000001c8 .L0 
     /tmp/ccxWC9L2.s:321    .text:00000000000001cc .L0 
     /tmp/ccxWC9L2.s:324    .text:00000000000001d0 .L0 
     /tmp/ccxWC9L2.s:331    .text:00000000000001dc .L0 
     /tmp/ccxWC9L2.s:332    .text:00000000000001e0 .L0 
     /tmp/ccxWC9L2.s:333    .text:00000000000001e0 .L0 
     /tmp/ccxWC9L2.s:335    .text:00000000000001e4 .L0 
     /tmp/ccxWC9L2.s:336    .text:00000000000001e4 .L0 
     /tmp/ccxWC9L2.s:338    .text:00000000000001e8 .L0 
     /tmp/ccxWC9L2.s:340    .text:00000000000001ec .L0 
     /tmp/ccxWC9L2.s:343    .text:00000000000001f0 .L0 
GAS LISTING /tmp/ccxWC9L2.s 			page 18


     /tmp/ccxWC9L2.s:346    .text:00000000000001f4 .L0 
     /tmp/ccxWC9L2.s:350    .text:00000000000001f8 .L0 
     /tmp/ccxWC9L2.s:354    .text:00000000000001f8 .L0 
     /tmp/ccxWC9L2.s:359    .text:0000000000000204 .L0 
     /tmp/ccxWC9L2.s:365    .text:0000000000000204 _ZN3TCB7unblockEv
     /tmp/ccxWC9L2.s:368    .text:0000000000000204 .L0 
     /tmp/ccxWC9L2.s:370    .text:0000000000000204 .L0 
     /tmp/ccxWC9L2.s:371    .text:0000000000000208 .L0 
     /tmp/ccxWC9L2.s:377    .text:000000000000021c .L0 
     /tmp/ccxWC9L2.s:378    .text:000000000000021c .L0 
     /tmp/ccxWC9L2.s:379    .text:000000000000021c .L0 
     /tmp/ccxWC9L2.s:380    .text:000000000000021c .L0 
     /tmp/ccxWC9L2.s:381    .text:000000000000021c .L0 
     /tmp/ccxWC9L2.s:383    .text:0000000000000220 .L0 
     /tmp/ccxWC9L2.s:392    .text:0000000000000228 .L0 
     /tmp/ccxWC9L2.s:395    .text:000000000000022c .L0 
     /tmp/ccxWC9L2.s:398    .text:0000000000000230 .L0 
     /tmp/ccxWC9L2.s:401    .text:0000000000000238 .L0 
     /tmp/ccxWC9L2.s:409    .text:0000000000000244 .L0 
     /tmp/ccxWC9L2.s:410    .text:0000000000000244 .L0 
     /tmp/ccxWC9L2.s:416    .text:0000000000000250 .L0 
     /tmp/ccxWC9L2.s:419    .text:0000000000000250 .L0 
     /tmp/ccxWC9L2.s:420    .text:0000000000000250 .L0 
     /tmp/ccxWC9L2.s:425    .text:0000000000000254 .L0 
     /tmp/ccxWC9L2.s:428    .text:0000000000000258 .L0 
     /tmp/ccxWC9L2.s:429    .text:0000000000000258 .L0 
     /tmp/ccxWC9L2.s:434    .text:000000000000025c .L0 
     /tmp/ccxWC9L2.s:436    .text:0000000000000260 .L0 
     /tmp/ccxWC9L2.s:439    .text:0000000000000264 .L0 
     /tmp/ccxWC9L2.s:441    .text:0000000000000268 .L0 
     /tmp/ccxWC9L2.s:443    .text:000000000000026c .L0 
     /tmp/ccxWC9L2.s:448    .text:0000000000000274 .L0 
     /tmp/ccxWC9L2.s:456    .text:000000000000027c .L0 
     /tmp/ccxWC9L2.s:457    .text:0000000000000280 .L0 
     /tmp/ccxWC9L2.s:459    .text:0000000000000284 .L0 
     /tmp/ccxWC9L2.s:460    .text:0000000000000284 .L0 
     /tmp/ccxWC9L2.s:462    .text:0000000000000288 .L0 
     /tmp/ccxWC9L2.s:465    .text:000000000000028c .L0 
     /tmp/ccxWC9L2.s:467    .text:0000000000000290 .L0 
     /tmp/ccxWC9L2.s:469    .text:0000000000000294 .L0 
     /tmp/ccxWC9L2.s:471    .text:0000000000000298 .L0 
     /tmp/ccxWC9L2.s:480    .text:0000000000000298 .L0 
     /tmp/ccxWC9L2.s:481    .text:0000000000000298 .L0 
     /tmp/ccxWC9L2.s:482    .text:000000000000029c .L0 
     /tmp/ccxWC9L2.s:486    .text:00000000000002a8 .L0 
     /tmp/ccxWC9L2.s:487    .text:00000000000002a8 .L0 
     /tmp/ccxWC9L2.s:488    .text:00000000000002a8 .L0 
     /tmp/ccxWC9L2.s:490    .text:00000000000002ac .L0 
     /tmp/ccxWC9L2.s:492    .text:00000000000002ac .L0 
     /tmp/ccxWC9L2.s:493    .text:00000000000002ac .L0 
     /tmp/ccxWC9L2.s:496    .text:00000000000002b4 .L0 
     /tmp/ccxWC9L2.s:497    .text:00000000000002b4 .L0 
     /tmp/ccxWC9L2.s:501    .text:00000000000002c4 .L0 
     /tmp/ccxWC9L2.s:505    .text:00000000000002cc .L0 
     /tmp/ccxWC9L2.s:506    .text:00000000000002cc .L0 
     /tmp/ccxWC9L2.s:511    .text:00000000000002d0 .L0 
     /tmp/ccxWC9L2.s:512    .text:00000000000002d0 .L0 
GAS LISTING /tmp/ccxWC9L2.s 			page 19


     /tmp/ccxWC9L2.s:518    .text:00000000000002d8 .L0 
     /tmp/ccxWC9L2.s:519    .text:00000000000002d8 .L0 
     /tmp/ccxWC9L2.s:522    .text:00000000000002e0 .L0 
     /tmp/ccxWC9L2.s:523    .text:00000000000002e0 .L0 
     /tmp/ccxWC9L2.s:526    .text:00000000000002e8 .L0 
     /tmp/ccxWC9L2.s:527    .text:00000000000002ec .L0 
     /tmp/ccxWC9L2.s:529    .text:00000000000002f0 .L0 
     /tmp/ccxWC9L2.s:530    .text:00000000000002f0 .L0 
     /tmp/ccxWC9L2.s:532    .text:00000000000002f4 .L0 
     /tmp/ccxWC9L2.s:534    .text:00000000000002f8 .L0 
     /tmp/ccxWC9L2.s:536    .text:00000000000002fc .L0 
     /tmp/ccxWC9L2.s:550    .bss:0000000000000008 _ZN3TCB16timeSliceCounterE
     /tmp/ccxWC9L2.s:546    .bss:0000000000000000 _ZN3TCB7runningE
     /tmp/ccxWC9L2.s:543    .bss:0000000000000000 .LANCHOR0
     /tmp/ccxWC9L2.s:558    .text:00000000000002fc .L0 
     /tmp/ccxWC9L2.s:63     .text:0000000000000058 .L0 
     /tmp/ccxWC9L2.s:209    .text:0000000000000128 .L0 
     /tmp/ccxWC9L2.s:239    .text:0000000000000148 .L0 
     /tmp/ccxWC9L2.s:497    .text:00000000000002b4 .L0 
     /tmp/ccxWC9L2.s:57     .text:0000000000000050 .L6
     /tmp/ccxWC9L2.s:60     .text:0000000000000054 .L2
     /tmp/ccxWC9L2.s:98     .text:00000000000000a8 .L7
     /tmp/ccxWC9L2.s:116    .text:00000000000000cc .L1
     /tmp/ccxWC9L2.s:70     .text:0000000000000070 .L3
     /tmp/ccxWC9L2.s:233    .text:0000000000000140 .L13
     /tmp/ccxWC9L2.s:260    .text:0000000000000174 .L15
     /tmp/ccxWC9L2.s:349    .text:00000000000001f8 .L17
     /tmp/ccxWC9L2.s:322    .text:00000000000001d0 .L18
     /tmp/ccxWC9L2.s:413    .text:0000000000000250 .L24
     /tmp/ccxWC9L2.s:451    .text:000000000000027c .L20
     /tmp/ccxWC9L2.s:446    .text:0000000000000274 .L25
     /tmp/ccxWC9L2.s:393    .text:000000000000022c .L23
     /tmp/ccxWC9L2.s:387    .text:0000000000000228 .L27
     /tmp/ccxWC9L2.s:405    .text:0000000000000244 .L22
     /tmp/ccxWC9L2.s:37     .text:0000000000000028 .LEHB0
     /tmp/ccxWC9L2.s:10     .text:0000000000000000 .LFB40
     /tmp/ccxWC9L2.s:40     .text:0000000000000030 .LEHE0
     /tmp/ccxWC9L2.s:53     .text:0000000000000044 .LEHB1
     /tmp/ccxWC9L2.s:96     .text:00000000000000a4 .LEHE1
     /tmp/ccxWC9L2.s:102    .text:00000000000000b0 .L8
     /tmp/ccxWC9L2.s:112    .text:00000000000000c4 .LEHB2
     /tmp/ccxWC9L2.s:115    .text:00000000000000cc .LEHE2
     /tmp/ccxWC9L2.s:2132   .debug_abbrev:0000000000000000 .Ldebug_abbrev0
     /tmp/ccxWC9L2.s:3896   .debug_str:000000000000083a .LASF153
     /tmp/ccxWC9L2.s:3776   .debug_str:00000000000004ed .LASF154
     /tmp/ccxWC9L2.s:3710   .debug_str:00000000000002db .LASF155
     /tmp/ccxWC9L2.s:5      .text:0000000000000000 .Ltext0
     /tmp/ccxWC9L2.s:553    .text:00000000000002fc .Letext0
     /tmp/ccxWC9L2.s:3614   .debug_line:0000000000000000 .Ldebug_line0
     /tmp/ccxWC9L2.s:3804   .debug_str:00000000000005b7 .LASF0
     /tmp/ccxWC9L2.s:3824   .debug_str:000000000000064b .LASF1
     /tmp/ccxWC9L2.s:3784   .debug_str:0000000000000526 .LASF2
     /tmp/ccxWC9L2.s:3688   .debug_str:000000000000023e .LASF3
     /tmp/ccxWC9L2.s:3744   .debug_str:0000000000000403 .LASF4
     /tmp/ccxWC9L2.s:3870   .debug_str:000000000000078c .LASF5
     /tmp/ccxWC9L2.s:3648   .debug_str:00000000000000f0 .LASF6
     /tmp/ccxWC9L2.s:3826   .debug_str:000000000000065e .LASF7
GAS LISTING /tmp/ccxWC9L2.s 			page 20


     /tmp/ccxWC9L2.s:3802   .debug_str:00000000000005a4 .LASF8
     /tmp/ccxWC9L2.s:3912   .debug_str:0000000000000956 .LASF9
     /tmp/ccxWC9L2.s:3724   .debug_str:0000000000000338 .LASF10
     /tmp/ccxWC9L2.s:3838   .debug_str:00000000000006c4 .LASF11
     /tmp/ccxWC9L2.s:3902   .debug_str:000000000000091a .LASF12
     /tmp/ccxWC9L2.s:3654   .debug_str:000000000000010a .LASF13
     /tmp/ccxWC9L2.s:3624   .debug_str:0000000000000044 .LASF14
     /tmp/ccxWC9L2.s:3666   .debug_str:0000000000000176 .LASF15
     /tmp/ccxWC9L2.s:3860   .debug_str:0000000000000748 .LASF16
     /tmp/ccxWC9L2.s:3682   .debug_str:000000000000020f .LASF17
     /tmp/ccxWC9L2.s:3834   .debug_str:00000000000006a6 .LASF18
     /tmp/ccxWC9L2.s:3712   .debug_str:00000000000002f9 .LASF84
     /tmp/ccxWC9L2.s:3738   .debug_str:00000000000003d8 .LASF156
     /tmp/ccxWC9L2.s:3662   .debug_str:0000000000000154 .LASF157
     /tmp/ccxWC9L2.s:3772   .debug_str:00000000000004d6 .LASF19
     /tmp/ccxWC9L2.s:3904   .debug_str:0000000000000929 .LASF22
     /tmp/ccxWC9L2.s:3852   .debug_str:0000000000000717 .LASF20
     /tmp/ccxWC9L2.s:3938   .debug_str:0000000000000a37 .LASF21
     /tmp/ccxWC9L2.s:3794   .debug_str:000000000000055f .LASF78
     /tmp/ccxWC9L2.s:3686   .debug_str:0000000000000239 .LASF23
     /tmp/ccxWC9L2.s:3788   .debug_str:0000000000000540 .LASF24
     /tmp/ccxWC9L2.s:3884   .debug_str:00000000000007e7 .LASF25
     /tmp/ccxWC9L2.s:3888   .debug_str:0000000000000808 .LASF26
     /tmp/ccxWC9L2.s:3742   .debug_str:00000000000003fe .LASF27
     /tmp/ccxWC9L2.s:3810   .debug_str:00000000000005d4 .LASF29
     /tmp/ccxWC9L2.s:3858   .debug_str:0000000000000731 .LASF31
     /tmp/ccxWC9L2.s:3796   .debug_str:000000000000057e .LASF158
     /tmp/ccxWC9L2.s:3730   .debug_str:0000000000000380 .LASF159
     /tmp/ccxWC9L2.s:3942   .debug_str:0000000000000a53 .LASF28
     /tmp/ccxWC9L2.s:3782   .debug_str:000000000000050f .LASF30
     /tmp/ccxWC9L2.s:3668   .debug_str:0000000000000182 .LASF32
     /tmp/ccxWC9L2.s:3714   .debug_str:000000000000030a .LASF33
     /tmp/ccxWC9L2.s:3756   .debug_str:0000000000000441 .LASF34
     /tmp/ccxWC9L2.s:3910   .debug_str:000000000000094b .LASF35
     /tmp/ccxWC9L2.s:3736   .debug_str:00000000000003bb .LASF36
     /tmp/ccxWC9L2.s:3894   .debug_str:0000000000000831 .LASF37
     /tmp/ccxWC9L2.s:3692   .debug_str:0000000000000261 .LASF38
     /tmp/ccxWC9L2.s:3722   .debug_str:0000000000000330 .LASF39
     /tmp/ccxWC9L2.s:3690   .debug_str:0000000000000245 .LASF40
     /tmp/ccxWC9L2.s:3898   .debug_str:00000000000008fe .LASF41
     /tmp/ccxWC9L2.s:3620   .debug_str:0000000000000010 .LASF42
     /tmp/ccxWC9L2.s:3660   .debug_str:000000000000014a .LASF43
     /tmp/ccxWC9L2.s:3762   .debug_str:0000000000000470 .LASF44
     /tmp/ccxWC9L2.s:3814   .debug_str:00000000000005ff .LASF45
     /tmp/ccxWC9L2.s:3638   .debug_str:0000000000000090 .LASF46
     /tmp/ccxWC9L2.s:3764   .debug_str:000000000000048b .LASF47
     /tmp/ccxWC9L2.s:3926   .debug_str:00000000000009ce .LASF48
     /tmp/ccxWC9L2.s:3854   .debug_str:000000000000071c .LASF49
     /tmp/ccxWC9L2.s:3924   .debug_str:00000000000009b5 .LASF50
     /tmp/ccxWC9L2.s:3634   .debug_str:0000000000000082 .LASF51
     /tmp/ccxWC9L2.s:3694   .debug_str:000000000000027e .LASF52
     /tmp/ccxWC9L2.s:3846   .debug_str:0000000000000701 .LASF53
     /tmp/ccxWC9L2.s:3828   .debug_str:0000000000000671 .LASF54
     /tmp/ccxWC9L2.s:3678   .debug_str:00000000000001e2 .LASF55
     /tmp/ccxWC9L2.s:3786   .debug_str:0000000000000534 .LASF56
     /tmp/ccxWC9L2.s:3940   .debug_str:0000000000000a3c .LASF57
     /tmp/ccxWC9L2.s:3774   .debug_str:00000000000004e0 .LASF58
GAS LISTING /tmp/ccxWC9L2.s 			page 21


     /tmp/ccxWC9L2.s:3644   .debug_str:00000000000000cf .LASF59
     /tmp/ccxWC9L2.s:3760   .debug_str:0000000000000463 .LASF60
     /tmp/ccxWC9L2.s:3822   .debug_str:000000000000062b .LASF61
     /tmp/ccxWC9L2.s:3850   .debug_str:0000000000000712 .LASF160
     /tmp/ccxWC9L2.s:3862   .debug_str:000000000000075e .LASF90
     /tmp/ccxWC9L2.s:3792   .debug_str:000000000000054f .LASF92
     /tmp/ccxWC9L2.s:3698   .debug_str:000000000000028c .LASF62
     /tmp/ccxWC9L2.s:3740   .debug_str:00000000000003ec .LASF63
     /tmp/ccxWC9L2.s:3650   .debug_str:00000000000000f7 .LASF64
     /tmp/ccxWC9L2.s:3726   .debug_str:0000000000000346 .LASF65
     /tmp/ccxWC9L2.s:3748   .debug_str:000000000000041d .LASF66
     /tmp/ccxWC9L2.s:3908   .debug_str:0000000000000935 .LASF67
     /tmp/ccxWC9L2.s:3632   .debug_str:0000000000000078 .LASF68
     /tmp/ccxWC9L2.s:3830   .debug_str:000000000000067c .LASF69
     /tmp/ccxWC9L2.s:3700   .debug_str:0000000000000292 .LASF161
     /tmp/ccxWC9L2.s:3798   .debug_str:0000000000000588 .LASF162
     /tmp/ccxWC9L2.s:3752   .debug_str:0000000000000431 .LASF70
     /tmp/ccxWC9L2.s:3672   .debug_str:00000000000001a8 .LASF71
     /tmp/ccxWC9L2.s:3866   .debug_str:000000000000076c .LASF72
     /tmp/ccxWC9L2.s:3816   .debug_str:000000000000060a .LASF73
     /tmp/ccxWC9L2.s:3750   .debug_str:0000000000000428 .LASF74
     /tmp/ccxWC9L2.s:3616   .debug_str:0000000000000000 .LASF75
     /tmp/ccxWC9L2.s:3856   .debug_str:0000000000000724 .LASF76
     /tmp/ccxWC9L2.s:3766   .debug_str:0000000000000494 .LASF80
     /tmp/ccxWC9L2.s:3732   .debug_str:0000000000000397 .LASF82
     /tmp/ccxWC9L2.s:3920   .debug_str:0000000000000994 .LASF77
     /tmp/ccxWC9L2.s:3728   .debug_str:0000000000000358 .LASF79
     /tmp/ccxWC9L2.s:3808   .debug_str:00000000000005cb .LASF81
     /tmp/ccxWC9L2.s:3706   .debug_str:00000000000002c3 .LASF83
     /tmp/ccxWC9L2.s:3872   .debug_str:000000000000079e .LASF85
     /tmp/ccxWC9L2.s:3652   .debug_str:00000000000000ff .LASF86
     /tmp/ccxWC9L2.s:3734   .debug_str:00000000000003b0 .LASF87
     /tmp/ccxWC9L2.s:3708   .debug_str:00000000000002d6 .LASF88
     /tmp/ccxWC9L2.s:3820   .debug_str:0000000000000625 .LASF89
     /tmp/ccxWC9L2.s:3876   .debug_str:00000000000007b6 .LASF91
     /tmp/ccxWC9L2.s:3932   .debug_str:0000000000000a00 .LASF93
     /tmp/ccxWC9L2.s:3626   .debug_str:0000000000000054 .LASF94
     /tmp/ccxWC9L2.s:3702   .debug_str:000000000000029a .LASF97
     /tmp/ccxWC9L2.s:3696   .debug_str:0000000000000283 .LASF95
     /tmp/ccxWC9L2.s:3628   .debug_str:000000000000005d .LASF100
     /tmp/ccxWC9L2.s:3874   .debug_str:00000000000007af .LASF96
     /tmp/ccxWC9L2.s:3844   .debug_str:00000000000006ee .LASF98
     /tmp/ccxWC9L2.s:3906   .debug_str:000000000000092e .LASF99
     /tmp/ccxWC9L2.s:3746   .debug_str:000000000000040a .LASF101
     /tmp/ccxWC9L2.s:3716   .debug_str:0000000000000312 .LASF102
     /tmp/ccxWC9L2.s:3684   .debug_str:0000000000000225 .LASF103
     /tmp/ccxWC9L2.s:3618   .debug_str:0000000000000008 .LASF104
     /tmp/ccxWC9L2.s:3934   .debug_str:0000000000000a18 .LASF105
     /tmp/ccxWC9L2.s:3646   .debug_str:00000000000000e8 .LASF106
     /tmp/ccxWC9L2.s:3656   .debug_str:000000000000011a .LASF107
     /tmp/ccxWC9L2.s:3864   .debug_str:0000000000000764 .LASF108
     /tmp/ccxWC9L2.s:3704   .debug_str:00000000000002af .LASF109
     /tmp/ccxWC9L2.s:3806   .debug_str:00000000000005c4 .LASF110
     /tmp/ccxWC9L2.s:3928   .debug_str:00000000000009e8 .LASF111
     /tmp/ccxWC9L2.s:3640   .debug_str:00000000000000ad .LASF112
     /tmp/ccxWC9L2.s:3922   .debug_str:00000000000009a2 .LASF113
     /tmp/ccxWC9L2.s:3720   .debug_str:000000000000032a .LASF114
GAS LISTING /tmp/ccxWC9L2.s 			page 22


     /tmp/ccxWC9L2.s:3892   .debug_str:000000000000081f .LASF115
     /tmp/ccxWC9L2.s:3636   .debug_str:000000000000008a .LASF116
     /tmp/ccxWC9L2.s:3944   .debug_str:0000000000000a59 .LASF117
     /tmp/ccxWC9L2.s:3936   .debug_str:0000000000000a2c .LASF118
     /tmp/ccxWC9L2.s:3868   .debug_str:0000000000000774 .LASF119
     /tmp/ccxWC9L2.s:3754   .debug_str:0000000000000436 .LASF120
     /tmp/ccxWC9L2.s:3886   .debug_str:00000000000007f0 .LASF121
     /tmp/ccxWC9L2.s:3664   .debug_str:000000000000016c .LASF122
     /tmp/ccxWC9L2.s:3832   .debug_str:0000000000000690 .LASF123
     /tmp/ccxWC9L2.s:3790   .debug_str:0000000000000545 .LASF124
     /tmp/ccxWC9L2.s:3680   .debug_str:00000000000001f9 .LASF125
     /tmp/ccxWC9L2.s:3878   .debug_str:00000000000007c1 .LASF126
     /tmp/ccxWC9L2.s:3658   .debug_str:000000000000012e .LASF127
     /tmp/ccxWC9L2.s:3916   .debug_str:0000000000000979 .LASF128
     /tmp/ccxWC9L2.s:3768   .debug_str:00000000000004a2 .LASF129
     /tmp/ccxWC9L2.s:3880   .debug_str:00000000000007d0 .LASF130
     /tmp/ccxWC9L2.s:3758   .debug_str:000000000000045a .LASF131
     /tmp/ccxWC9L2.s:3836   .debug_str:00000000000006b0 .LASF132
     /tmp/ccxWC9L2.s:3770   .debug_str:00000000000004c4 .LASF133
     /tmp/ccxWC9L2.s:3622   .debug_str:000000000000002e .LASF134
     /tmp/ccxWC9L2.s:3890   .debug_str:000000000000080d .LASF135
     /tmp/ccxWC9L2.s:3818   .debug_str:0000000000000614 .LASF136
     /tmp/ccxWC9L2.s:3642   .debug_str:00000000000000b4 .LASF137
     /tmp/ccxWC9L2.s:3930   .debug_str:00000000000009fb .LASF138
     /tmp/ccxWC9L2.s:3676   .debug_str:00000000000001c3 .LASF140
     /tmp/ccxWC9L2.s:3848   .debug_str:000000000000070d .LASF139
     /tmp/ccxWC9L2.s:3914   .debug_str:0000000000000966 .LASF141
     /tmp/ccxWC9L2.s:366    .text:0000000000000204 .LFB45
     /tmp/ccxWC9L2.s:472    .text:0000000000000298 .LFE45
     /tmp/ccxWC9L2.s:3280   .debug_loc:0000000000000000 .LLST16
     /tmp/ccxWC9L2.s:3594   .debug_ranges:0000000000000000 .Ldebug_ranges0
     /tmp/ccxWC9L2.s:3298   .debug_loc:000000000000004c .LLST17
     /tmp/ccxWC9L2.s:389    .text:0000000000000228 .LBB49
     /tmp/ccxWC9L2.s:3305   .debug_loc:000000000000006f .LLST18
     /tmp/ccxWC9L2.s:3316   .debug_loc:00000000000000a5 .LLST19
     /tmp/ccxWC9L2.s:3327   .debug_loc:00000000000000db .LLST20
     /tmp/ccxWC9L2.s:399    .text:0000000000000238 .LVL36
     /tmp/ccxWC9L2.s:412    .text:0000000000000250 .LVL38
     /tmp/ccxWC9L2.s:417    .text:0000000000000250 .LBB53
     /tmp/ccxWC9L2.s:423    .text:0000000000000254 .LBE53
     /tmp/ccxWC9L2.s:3334   .debug_loc:00000000000000fe .LLST21
     /tmp/ccxWC9L2.s:275    .text:0000000000000184 .LFB44
     /tmp/ccxWC9L2.s:360    .text:0000000000000204 .LFE44
     /tmp/ccxWC9L2.s:3343   .debug_loc:0000000000000123 .LLST9
     /tmp/ccxWC9L2.s:3800   .debug_str:000000000000059d .LASF142
     /tmp/ccxWC9L2.s:3365   .debug_loc:0000000000000182 .LLST10
     /tmp/ccxWC9L2.s:299    .text:00000000000001ac .LBB37
     /tmp/ccxWC9L2.s:3387   .debug_loc:00000000000001e1 .LLST11
     /tmp/ccxWC9L2.s:3402   .debug_loc:000000000000022a .LLST12
     /tmp/ccxWC9L2.s:306    .text:00000000000001b8 .LBB39
     /tmp/ccxWC9L2.s:313    .text:00000000000001c0 .LBE39
     /tmp/ccxWC9L2.s:3413   .debug_loc:0000000000000260 .LLST13
     /tmp/ccxWC9L2.s:3421   .debug_loc:0000000000000284 .LLST14
     /tmp/ccxWC9L2.s:3428   .debug_loc:00000000000002a7 .LLST15
     /tmp/ccxWC9L2.s:305    .text:00000000000001b8 .LVL27
     /tmp/ccxWC9L2.s:478    .text:0000000000000298 .LFB43
     /tmp/ccxWC9L2.s:537    .text:00000000000002fc .LFE43
GAS LISTING /tmp/ccxWC9L2.s 			page 23


     /tmp/ccxWC9L2.s:508    .text:00000000000002d0 .LBB56
     /tmp/ccxWC9L2.s:516    .text:00000000000002d8 .LBE56
     /tmp/ccxWC9L2.s:3435   .debug_loc:00000000000002ca .LLST22
     /tmp/ccxWC9L2.s:3443   .debug_loc:00000000000002ee .LLST23
     /tmp/ccxWC9L2.s:494    .text:00000000000002b4 .LVL45
     /tmp/ccxWC9L2.s:520    .text:00000000000002e0 .LVL49
     /tmp/ccxWC9L2.s:524    .text:00000000000002e8 .LVL50
     /tmp/ccxWC9L2.s:194    .text:0000000000000114 .LFB42
     /tmp/ccxWC9L2.s:269    .text:0000000000000184 .LFE42
     /tmp/ccxWC9L2.s:3450   .debug_loc:0000000000000311 .LLST6
     /tmp/ccxWC9L2.s:212    .text:0000000000000130 .LBB28
     /tmp/ccxWC9L2.s:219    .text:0000000000000134 .LBE28
     /tmp/ccxWC9L2.s:3461   .debug_loc:0000000000000347 .LLST7
     /tmp/ccxWC9L2.s:223    .text:0000000000000138 .LBB30
     /tmp/ccxWC9L2.s:230    .text:000000000000013c .LBE30
     /tmp/ccxWC9L2.s:3468   .debug_loc:000000000000036a .LLST8
     /tmp/ccxWC9L2.s:237    .text:0000000000000148 .LVL19
     /tmp/ccxWC9L2.s:245    .text:0000000000000160 .LVL20
     /tmp/ccxWC9L2.s:266    .text:0000000000000180 .LVL23
     /tmp/ccxWC9L2.s:163    .text:00000000000000ec .LFB41
     /tmp/ccxWC9L2.s:188    .text:0000000000000114 .LFE41
     /tmp/ccxWC9L2.s:177    .text:0000000000000104 .LVL14
     /tmp/ccxWC9L2.s:137    .text:00000000000000ec .LFE40
     /tmp/ccxWC9L2.s:3475   .debug_loc:000000000000038d .LLST0
     /tmp/ccxWC9L2.s:3504   .debug_loc:0000000000000402 .LLST1
     /tmp/ccxWC9L2.s:43     .text:0000000000000034 .LBB24
     /tmp/ccxWC9L2.s:106    .text:00000000000000b4 .LBE24
     /tmp/ccxWC9L2.s:3522   .debug_loc:000000000000044e .LLST2
     /tmp/ccxWC9L2.s:3536   .debug_loc:0000000000000487 .LLST3
     /tmp/ccxWC9L2.s:3561   .debug_loc:00000000000004e9 .LLST4
     /tmp/ccxWC9L2.s:78     .text:0000000000000084 .LBB26
     /tmp/ccxWC9L2.s:88     .text:0000000000000094 .LBE26
     /tmp/ccxWC9L2.s:3572   .debug_loc:000000000000051f .LLST5
     /tmp/ccxWC9L2.s:55     .text:000000000000004c .LVL4
     /tmp/ccxWC9L2.s:95     .text:00000000000000a4 .LVL7
     /tmp/ccxWC9L2.s:39     .text:0000000000000030 .LVL2
     /tmp/ccxWC9L2.s:110    .text:00000000000000c0 .LVL9
     /tmp/ccxWC9L2.s:114    .text:00000000000000cc .LVL10
     /tmp/ccxWC9L2.s:3674   .debug_str:00000000000001ae .LASF143
     /tmp/ccxWC9L2.s:3840   .debug_str:00000000000006d3 .LASF144
     /tmp/ccxWC9L2.s:3780   .debug_str:0000000000000508 .LASF145
     /tmp/ccxWC9L2.s:3670   .debug_str:0000000000000198 .LASF147
     /tmp/ccxWC9L2.s:3630   .debug_str:0000000000000072 .LASF146
     /tmp/ccxWC9L2.s:3882   .debug_str:00000000000007da .LASF148
     /tmp/ccxWC9L2.s:3842   .debug_str:00000000000006d9 .LASF163
     /tmp/ccxWC9L2.s:3718   .debug_str:000000000000031a .LASF164
     /tmp/ccxWC9L2.s:3918   .debug_str:000000000000098e .LASF149
     /tmp/ccxWC9L2.s:3900   .debug_str:000000000000090a .LASF150
     /tmp/ccxWC9L2.s:3778   .debug_str:00000000000004f9 .LASF151
     /tmp/ccxWC9L2.s:3812   .debug_str:00000000000005e7 .LASF152
     /tmp/ccxWC9L2.s:369    .text:0000000000000204 .LVL33
     /tmp/ccxWC9L2.s:386    .text:0000000000000228 .LVL34
     /tmp/ccxWC9L2.s:463    .text:0000000000000288 .LVL44
     /tmp/ccxWC9L2.s:404    .text:0000000000000244 .LVL37
     /tmp/ccxWC9L2.s:430    .text:000000000000025c .LVL40
     /tmp/ccxWC9L2.s:450    .text:000000000000027c .LVL43
     /tmp/ccxWC9L2.s:437    .text:0000000000000264 .LVL41
GAS LISTING /tmp/ccxWC9L2.s 			page 24


     /tmp/ccxWC9L2.s:445    .text:0000000000000274 .LVL42
     /tmp/ccxWC9L2.s:396    .text:0000000000000230 .LVL35
     /tmp/ccxWC9L2.s:421    .text:0000000000000254 .LVL39
     /tmp/ccxWC9L2.s:278    .text:0000000000000184 .LVL24
     /tmp/ccxWC9L2.s:303    .text:00000000000001b0 .LVL26
     /tmp/ccxWC9L2.s:341    .text:00000000000001ec .LVL30
     /tmp/ccxWC9L2.s:348    .text:00000000000001f8 .LVL32
     /tmp/ccxWC9L2.s:344    .text:00000000000001f0 .LVL31
     /tmp/ccxWC9L2.s:298    .text:00000000000001ac .LVL25
     /tmp/ccxWC9L2.s:327    .text:00000000000001dc .LVL29
     /tmp/ccxWC9L2.s:311    .text:00000000000001c0 .LVL28
     /tmp/ccxWC9L2.s:507    .text:00000000000002d0 .LVL47
     /tmp/ccxWC9L2.s:514    .text:00000000000002d8 .LVL48
     /tmp/ccxWC9L2.s:210    .text:0000000000000130 .LVL15
     /tmp/ccxWC9L2.s:255    .text:000000000000016c .LVL21
     /tmp/ccxWC9L2.s:259    .text:0000000000000174 .LVL22
     /tmp/ccxWC9L2.s:217    .text:0000000000000134 .LVL16
     /tmp/ccxWC9L2.s:222    .text:0000000000000138 .LVL17
     /tmp/ccxWC9L2.s:228    .text:000000000000013c .LVL18
     /tmp/ccxWC9L2.s:16     .text:0000000000000000 .LVL0
     /tmp/ccxWC9L2.s:36     .text:0000000000000028 .LVL1
     /tmp/ccxWC9L2.s:104    .text:00000000000000b4 .LVL8
     /tmp/ccxWC9L2.s:129    .text:00000000000000e0 .LVL12
     /tmp/ccxWC9L2.s:132    .text:00000000000000e4 .LVL13
     /tmp/ccxWC9L2.s:42     .text:0000000000000034 .LVL3
     /tmp/ccxWC9L2.s:126    .text:00000000000000dc .LVL11
     /tmp/ccxWC9L2.s:77     .text:0000000000000084 .LVL5
     /tmp/ccxWC9L2.s:86     .text:0000000000000094 .LVL6
     /tmp/ccxWC9L2.s:559    .debug_info:0000000000000000 .Ldebug_info0
     /tmp/ccxWC9L2.s:329    .text:00000000000001dc .LBE37
     /tmp/ccxWC9L2.s:351    .text:00000000000001f8 .LBB42
     /tmp/ccxWC9L2.s:358    .text:0000000000000204 .LBE42
     /tmp/ccxWC9L2.s:388    .text:0000000000000228 .LBB48
     /tmp/ccxWC9L2.s:414    .text:0000000000000250 .LBE48
     /tmp/ccxWC9L2.s:426    .text:0000000000000258 .LBB55
     /tmp/ccxWC9L2.s:454    .text:000000000000027c .LBE55
     /tmp/ccxWC9L2.s:407    .text:0000000000000244 .LBE49
     /tmp/ccxWC9L2.s:431    .text:000000000000025c .LBB52
     /tmp/ccxWC9L2.s:453    .text:000000000000027c .LBE52
     /tmp/ccxWC9L2.s:140    .gcc_except_table:0000000000000000 .LLSDA40

UNDEFINED SYMBOLS
_Znwm
_Znam
_ZN9Scheduler3putEP3TCB
_ZdlPv
_Unwind_Resume
__gxx_personality_v0
_Z15thread_dispatchv
_ZN9Scheduler3getEv
_ZN3TCB13contextSwitchEPNS_7ContextES1_
_ZN5Riscv10popSppSpieEv
