GAS LISTING /tmp/ccnjDXQ6.s 			page 1


   1              		.file	"tcb.cpp"
   2              		.option pic
   3              		.option norelax
   4              		.text
   5              	.Ltext0:
   6              		.align	2
   7              		.globl	_ZN3TCB12createThreadEPFvPvES0_
   9              	_ZN3TCB12createThreadEPFvPvES0_:
  10              	.LFB33:
  11              		.file 1 "src/tcb.cpp"
   1:src/tcb.cpp   **** //
   2:src/tcb.cpp   **** // Created by marko on 20.4.22..
   3:src/tcb.cpp   **** //
   4:src/tcb.cpp   **** 
   5:src/tcb.cpp   **** #include "../h/tcb.hpp"
   6:src/tcb.cpp   **** #include "../h/riscv.hpp"
   7:src/tcb.cpp   **** #include "../h/syscall_c.hpp"
   8:src/tcb.cpp   **** 
   9:src/tcb.cpp   **** TCB *TCB::running = nullptr;
  10:src/tcb.cpp   **** 
  11:src/tcb.cpp   **** uint64 TCB::timeSliceCounter = 0;
  12:src/tcb.cpp   **** 
  13:src/tcb.cpp   **** TCB *TCB::createThread(Body body, void* arg)
  14:src/tcb.cpp   **** {
  12              		.loc 1 14 1
  13              		.cfi_startproc
  14              		.cfi_personality 0x9b,DW.ref.__gxx_personality_v0
  15              		.cfi_lsda 0x1b,.LLSDA33
  16              	.LVL0:
  17 0000 130101FD 		addi	sp,sp,-48
  18              		.cfi_def_cfa_offset 48
  19 0004 23341102 		sd	ra,40(sp)
  20 0008 23308102 		sd	s0,32(sp)
  21 000c 233C9100 		sd	s1,24(sp)
  22 0010 23382101 		sd	s2,16(sp)
  23 0014 23343101 		sd	s3,8(sp)
  24              		.cfi_offset 1, -8
  25              		.cfi_offset 8, -16
  26              		.cfi_offset 9, -24
  27              		.cfi_offset 18, -32
  28              		.cfi_offset 19, -40
  29 0018 13040103 		addi	s0,sp,48
  30              		.cfi_def_cfa 8, 0
  31 001c 13090500 		mv	s2,a0
  32 0020 93890500 		mv	s3,a1
  15:src/tcb.cpp   ****     return new TCB(body,arg, TIME_SLICE);
  33              		.loc 1 15 5
  34              		.loc 1 15 40 is_stmt 0
  35 0024 13058003 		li	a0,56
  36              	.LVL1:
  37              	.LEHB0:
  38 0028 97000000 		call	_Znwm@plt
  38      E7800000 
  39              	.LVL2:
  40              	.LEHE0:
  41 0030 93040500 		mv	s1,a0
  42              	.LVL3:
GAS LISTING /tmp/ccnjDXQ6.s 			page 2


  43              	.LBB9:
  44              	.LBB10:
  45              		.file 2 "src/../h/tcb.hpp"
   1:src/../h/tcb.hpp **** //
   2:src/../h/tcb.hpp **** // Created by marko on 20.4.22..
   3:src/../h/tcb.hpp **** //
   4:src/../h/tcb.hpp **** 
   5:src/../h/tcb.hpp **** #ifndef OS1_VEZBE07_RISCV_CONTEXT_SWITCH_2_INTERRUPT_TCB_HPP
   6:src/../h/tcb.hpp **** #define OS1_VEZBE07_RISCV_CONTEXT_SWITCH_2_INTERRUPT_TCB_HPP
   7:src/../h/tcb.hpp **** 
   8:src/../h/tcb.hpp **** #include "../lib/hw.h"
   9:src/../h/tcb.hpp **** #include "scheduler.hpp"
  10:src/../h/tcb.hpp **** 
  11:src/../h/tcb.hpp **** // Thread Control Block
  12:src/../h/tcb.hpp **** class TCB
  13:src/../h/tcb.hpp **** {
  14:src/../h/tcb.hpp **** public:
  15:src/../h/tcb.hpp ****     ~TCB() { if (stack!= nullptr) delete[] stack; }
  16:src/../h/tcb.hpp **** 
  17:src/../h/tcb.hpp ****     bool isFinished() const { return finished; }
  18:src/../h/tcb.hpp **** 
  19:src/../h/tcb.hpp ****     void setFinished(bool value) { finished = value; }
  20:src/../h/tcb.hpp **** 
  21:src/../h/tcb.hpp ****     uint64 getTimeSlice() const { return timeSlice; }
  22:src/../h/tcb.hpp **** 
  23:src/../h/tcb.hpp ****     using Body = void (*)(void *);
  24:src/../h/tcb.hpp **** 
  25:src/../h/tcb.hpp ****     static TCB *createThread(Body body, void* arg);
  26:src/../h/tcb.hpp **** 
  27:src/../h/tcb.hpp ****     static void yield();
  28:src/../h/tcb.hpp **** 
  29:src/../h/tcb.hpp ****     static TCB *running;
  30:src/../h/tcb.hpp **** 
  31:src/../h/tcb.hpp **** private:
  32:src/../h/tcb.hpp ****     TCB(Body body, void* arg,uint64 timeSlice) :
  33:src/../h/tcb.hpp ****             arg(arg),
  34:src/../h/tcb.hpp ****             body(body),
  35:src/../h/tcb.hpp ****             stack(body != nullptr ? new uint64[STACK_SIZE] : nullptr),
  36:src/../h/tcb.hpp ****             context({(uint64) &threadWrapper,
  37:src/../h/tcb.hpp ****                      stack != nullptr ? (uint64) &stack[STACK_SIZE] : 0
  38:src/../h/tcb.hpp ****                     }),
  39:src/../h/tcb.hpp ****             timeSlice(timeSlice),
  40:src/../h/tcb.hpp ****             finished(false)
  46              		.loc 2 40 27
  47 0034 23303501 		sd	s3,0(a0)
  48 0038 23342501 		sd	s2,8(a0)
  35:src/../h/tcb.hpp ****             context({(uint64) &threadWrapper,
  49              		.loc 2 35 35
  50 003c 630A0900 		beqz	s2,.L6
  35:src/../h/tcb.hpp ****             context({(uint64) &threadWrapper,
  51              		.loc 2 35 58
  52 0040 37250000 		li	a0,8192
  53              	.LEHB1:
  54 0044 97000000 		call	_Znam@plt
  54      E7800000 
  55              	.LVL4:
  56 004c 6F008000 		j	.L2
GAS LISTING /tmp/ccnjDXQ6.s 			page 3


  57              	.L6:
  35:src/../h/tcb.hpp ****             context({(uint64) &threadWrapper,
  58              		.loc 2 35 35
  59 0050 13050000 		li	a0,0
  60              	.L2:
  61              		.loc 2 40 27
  62 0054 23B8A400 		sd	a0,16(s1)
  63 0058 97070000 		lla	a5,_ZN3TCB13threadWrapperEv
  63      93870700 
  64 0060 23BCF400 		sd	a5,24(s1)
  37:src/../h/tcb.hpp ****                     }),
  65              		.loc 2 37 39
  66 0064 63080502 		beqz	a0,.L7
  37:src/../h/tcb.hpp ****                     }),
  67              		.loc 2 37 50
  68 0068 B7270000 		li	a5,8192
  69 006c B307F500 		add	a5,a0,a5
  70              	.L3:
  71              		.loc 2 40 27
  72 0070 23B0F402 		sd	a5,32(s1)
  73 0074 93072000 		li	a5,2
  74 0078 23B4F402 		sd	a5,40(s1)
  75 007c 23880402 		sb	zero,48(s1)
  41:src/../h/tcb.hpp ****     {
  42:src/../h/tcb.hpp ****         if (body != nullptr) { Scheduler::put(this); }
  76              		.loc 2 42 9 is_stmt 1
  77 0080 630C0902 		beqz	s2,.L1
  78              		.loc 2 42 32
  79              		.loc 2 42 46 is_stmt 0
  80 0084 13850400 		mv	a0,s1
  81 0088 97000000 		call	_ZN9Scheduler3putEP3TCB@plt
  81      E7800000 
  82              	.LVL5:
  83              	.LEHE1:
  84 0090 6F008002 		j	.L1
  85              	.L7:
  37:src/../h/tcb.hpp ****                     }),
  86              		.loc 2 37 39
  87 0094 93070000 		li	a5,0
  88 0098 6FF09FFD 		j	.L3
  89              	.L8:
  90 009c 13090500 		mv	s2,a0
  91              	.LVL6:
  92              	.LBE10:
  93              	.LBE9:
  94              		.loc 1 15 40
  95 00a0 13850400 		mv	a0,s1
  96 00a4 97000000 		call	_ZdlPv@plt
  96      E7800000 
  97              	.LVL7:
  98 00ac 13050900 		mv	a0,s2
  99              	.LEHB2:
 100 00b0 97000000 		call	_Unwind_Resume@plt
 100      E7800000 
 101              	.LVL8:
 102              	.LEHE2:
 103              	.L1:
GAS LISTING /tmp/ccnjDXQ6.s 			page 4


  16:src/tcb.cpp   **** }
 104              		.loc 1 16 1
 105 00b8 13850400 		mv	a0,s1
 106 00bc 83308102 		ld	ra,40(sp)
 107              		.cfi_restore 1
 108 00c0 03340102 		ld	s0,32(sp)
 109              		.cfi_restore 8
 110              		.cfi_def_cfa 2, 48
 111 00c4 83348101 		ld	s1,24(sp)
 112              		.cfi_restore 9
 113              	.LVL9:
 114 00c8 03390101 		ld	s2,16(sp)
 115              		.cfi_restore 18
 116              	.LVL10:
 117 00cc 83398100 		ld	s3,8(sp)
 118              		.cfi_restore 19
 119              	.LVL11:
 120 00d0 13010103 		addi	sp,sp,48
 121              		.cfi_def_cfa_offset 0
 122 00d4 67800000 		jr	ra
 123              		.cfi_endproc
 124              	.LFE33:
 125              		.globl	__gxx_personality_v0
 126              		.section	.gcc_except_table,"a",@progbits
 127              	.LLSDA33:
 128 0000 FF       		.byte	0xff
 129 0001 FF       		.byte	0xff
 130 0002 03       		.byte	0x3
 131 0003 27       		.byte	0x27
 132 0004 00000000 		.4byte	.LEHB0-.LFB33
 133 0008 00000000 		.4byte	.LEHE0-.LEHB0
 134 000c 00000000 		.4byte	0
 135 0010 00       		.byte	0
 136 0011 00000000 		.4byte	.LEHB1-.LFB33
 137 0015 00000000 		.4byte	.LEHE1-.LEHB1
 138 0019 00000000 		.4byte	.L8-.LFB33
 139 001d 00       		.byte	0
 140 001e 00000000 		.4byte	.LEHB2-.LFB33
 141 0022 00000000 		.4byte	.LEHE2-.LEHB2
 142 0026 00000000 		.4byte	0
 143 002a 00       		.byte	0
 144              		.text
 146              		.align	2
 147              		.globl	_ZN3TCB5yieldEv
 149              	_ZN3TCB5yieldEv:
 150              	.LFB34:
  17:src/tcb.cpp   **** 
  18:src/tcb.cpp   **** void TCB::yield()
  19:src/tcb.cpp   **** {
 151              		.loc 1 19 1 is_stmt 1
 152              		.cfi_startproc
 153 00d8 130101FF 		addi	sp,sp,-16
 154              		.cfi_def_cfa_offset 16
 155 00dc 23341100 		sd	ra,8(sp)
 156 00e0 23308100 		sd	s0,0(sp)
 157              		.cfi_offset 1, -8
 158              		.cfi_offset 8, -16
GAS LISTING /tmp/ccnjDXQ6.s 			page 5


 159 00e4 13040101 		addi	s0,sp,16
 160              		.cfi_def_cfa 8, 0
  20:src/tcb.cpp   ****     thread_dispatch();
 161              		.loc 1 20 5
 162              		.loc 1 20 20 is_stmt 0
 163 00e8 97000000 		call	_Z15thread_dispatchv@plt
 163      E7800000 
 164              	.LVL12:
  21:src/tcb.cpp   **** }
 165              		.loc 1 21 1
 166 00f0 83308100 		ld	ra,8(sp)
 167              		.cfi_restore 1
 168 00f4 03340100 		ld	s0,0(sp)
 169              		.cfi_restore 8
 170              		.cfi_def_cfa 2, 16
 171 00f8 13010101 		addi	sp,sp,16
 172              		.cfi_def_cfa_offset 0
 173 00fc 67800000 		jr	ra
 174              		.cfi_endproc
 175              	.LFE34:
 177              		.align	2
 178              		.globl	_ZN3TCB13threadWrapperEv
 180              	_ZN3TCB13threadWrapperEv:
 181              	.LFB36:
  22:src/tcb.cpp   **** 
  23:src/tcb.cpp   **** void TCB::dispatch()
  24:src/tcb.cpp   **** {
  25:src/tcb.cpp   ****     TCB *old = running;
  26:src/tcb.cpp   ****     if (!old->isFinished()) { Scheduler::put(old); }
  27:src/tcb.cpp   ****     running = Scheduler::get();
  28:src/tcb.cpp   **** 
  29:src/tcb.cpp   ****     TCB::contextSwitch(&old->context, &running->context);
  30:src/tcb.cpp   **** 
  31:src/tcb.cpp   **** 
  32:src/tcb.cpp   **** }
  33:src/tcb.cpp   **** 
  34:src/tcb.cpp   **** void TCB::threadWrapper()
  35:src/tcb.cpp   **** {
 182              		.loc 1 35 1 is_stmt 1
 183              		.cfi_startproc
 184 0100 130101FE 		addi	sp,sp,-32
 185              		.cfi_def_cfa_offset 32
 186 0104 233C1100 		sd	ra,24(sp)
 187 0108 23388100 		sd	s0,16(sp)
 188 010c 23349100 		sd	s1,8(sp)
 189              		.cfi_offset 1, -8
 190              		.cfi_offset 8, -16
 191              		.cfi_offset 9, -24
 192 0110 13040102 		addi	s0,sp,32
 193              		.cfi_def_cfa 8, 0
  36:src/tcb.cpp   ****     Riscv::popSppSpie();
 194              		.loc 1 36 5
 195              		.loc 1 36 22 is_stmt 0
 196 0114 97000000 		call	_ZN5Riscv10popSppSpieEv@plt
 196      E7800000 
 197              	.LVL13:
  37:src/tcb.cpp   ****     running->body(running->arg);
GAS LISTING /tmp/ccnjDXQ6.s 			page 6


 198              		.loc 1 37 5 is_stmt 1
 199              		.loc 1 37 14 is_stmt 0
 200 011c 97040000 		lla	s1,.LANCHOR0
 200      93840400 
 201 0124 83B70400 		ld	a5,0(s1)
 202 0128 03B78700 		ld	a4,8(a5)
 203              		.loc 1 37 18
 204 012c 03B50700 		ld	a0,0(a5)
 205 0130 E7000700 		jalr	a4
 206              	.LVL14:
  38:src/tcb.cpp   ****     running->setFinished(true);
 207              		.loc 1 38 5 is_stmt 1
 208              		.loc 1 38 25 is_stmt 0
 209 0134 83B70400 		ld	a5,0(s1)
 210              	.LVL15:
 211              	.LBB11:
 212              	.LBB12:
  19:src/../h/tcb.hpp **** 
 213              		.loc 2 19 36 is_stmt 1
  19:src/../h/tcb.hpp **** 
 214              		.loc 2 19 45 is_stmt 0
 215 0138 13071000 		li	a4,1
 216 013c 2388E702 		sb	a4,48(a5)
 217              	.LVL16:
 218              	.LBE12:
 219              	.LBE11:
  39:src/tcb.cpp   ****     TCB::yield();
 220              		.loc 1 39 5 is_stmt 1
 221              		.loc 1 39 15 is_stmt 0
 222 0140 97000000 		call	_ZN3TCB5yieldEv
 222      E7800000 
 223              	.LVL17:
  40:src/tcb.cpp   **** }
 224              		.loc 1 40 1
 225 0148 83308101 		ld	ra,24(sp)
 226              		.cfi_restore 1
 227 014c 03340101 		ld	s0,16(sp)
 228              		.cfi_restore 8
 229              		.cfi_def_cfa 2, 32
 230 0150 83348100 		ld	s1,8(sp)
 231              		.cfi_restore 9
 232 0154 13010102 		addi	sp,sp,32
 233              		.cfi_def_cfa_offset 0
 234 0158 67800000 		jr	ra
 235              		.cfi_endproc
 236              	.LFE36:
 238              		.align	2
 239              		.globl	_ZN3TCB8dispatchEv
 241              	_ZN3TCB8dispatchEv:
 242              	.LFB35:
  24:src/tcb.cpp   ****     TCB *old = running;
 243              		.loc 1 24 1 is_stmt 1
 244              		.cfi_startproc
 245 015c 130101FE 		addi	sp,sp,-32
 246              		.cfi_def_cfa_offset 32
 247 0160 233C1100 		sd	ra,24(sp)
 248 0164 23388100 		sd	s0,16(sp)
GAS LISTING /tmp/ccnjDXQ6.s 			page 7


 249 0168 23349100 		sd	s1,8(sp)
 250              		.cfi_offset 1, -8
 251              		.cfi_offset 8, -16
 252              		.cfi_offset 9, -24
 253 016c 13040102 		addi	s0,sp,32
 254              		.cfi_def_cfa 8, 0
  25:src/tcb.cpp   ****     if (!old->isFinished()) { Scheduler::put(old); }
 255              		.loc 1 25 5
  25:src/tcb.cpp   ****     if (!old->isFinished()) { Scheduler::put(old); }
 256              		.loc 1 25 10 is_stmt 0
 257 0170 97040000 		ld	s1,.LANCHOR0
 257      83B40400 
 258              	.LVL18:
  26:src/tcb.cpp   ****     running = Scheduler::get();
 259              		.loc 1 26 5 is_stmt 1
 260              	.LBB13:
 261              	.LBB14:
  17:src/../h/tcb.hpp **** 
 262              		.loc 2 17 31
  17:src/../h/tcb.hpp **** 
 263              		.loc 2 17 38 is_stmt 0
 264 0178 83C70403 		lbu	a5,48(s1)
 265              	.LVL19:
 266              	.LBE14:
 267              	.LBE13:
  26:src/tcb.cpp   ****     running = Scheduler::get();
 268              		.loc 1 26 5
 269 017c 638C0702 		beqz	a5,.L17
 270              	.L15:
  27:src/tcb.cpp   **** 
 271              		.loc 1 27 5 is_stmt 1
  27:src/tcb.cpp   **** 
 272              		.loc 1 27 29 is_stmt 0
 273 0180 97000000 		call	_ZN9Scheduler3getEv@plt
 273      E7800000 
 274              	.LVL20:
  27:src/tcb.cpp   **** 
 275              		.loc 1 27 13
 276 0188 97070000 		sd	a0,.LANCHOR0,a5
 276      23B0A700 
  29:src/tcb.cpp   **** 
 277              		.loc 1 29 5 is_stmt 1
  29:src/tcb.cpp   **** 
 278              		.loc 1 29 23 is_stmt 0
 279 0190 93058501 		addi	a1,a0,24
 280 0194 13858401 		addi	a0,s1,24
 281 0198 97000000 		call	_ZN3TCB13contextSwitchEPNS_7ContextES1_@plt
 281      E7800000 
 282              	.LVL21:
  32:src/tcb.cpp   **** 
 283              		.loc 1 32 1
 284 01a0 83308101 		ld	ra,24(sp)
 285              		.cfi_remember_state
 286              		.cfi_restore 1
 287 01a4 03340101 		ld	s0,16(sp)
 288              		.cfi_restore 8
 289              		.cfi_def_cfa 2, 32
GAS LISTING /tmp/ccnjDXQ6.s 			page 8


 290 01a8 83348100 		ld	s1,8(sp)
 291              		.cfi_restore 9
 292              	.LVL22:
 293 01ac 13010102 		addi	sp,sp,32
 294              		.cfi_def_cfa_offset 0
 295 01b0 67800000 		jr	ra
 296              	.LVL23:
 297              	.L17:
 298              		.cfi_restore_state
  26:src/tcb.cpp   ****     running = Scheduler::get();
 299              		.loc 1 26 31 is_stmt 1 discriminator 1
  26:src/tcb.cpp   ****     running = Scheduler::get();
 300              		.loc 1 26 45 is_stmt 0 discriminator 1
 301 01b4 13850400 		mv	a0,s1
 302 01b8 97000000 		call	_ZN9Scheduler3putEP3TCB@plt
 302      E7800000 
 303              	.LVL24:
 304 01c0 6FF01FFC 		j	.L15
 305              		.cfi_endproc
 306              	.LFE35:
 308              		.globl	_ZN3TCB16timeSliceCounterE
 309              		.globl	_ZN3TCB7runningE
 310              		.bss
 311              		.align	3
 312              		.set	.LANCHOR0,. + 0
 315              	_ZN3TCB7runningE:
 316 0000 00000000 		.zero	8
 316      00000000 
 319              	_ZN3TCB16timeSliceCounterE:
 320 0008 00000000 		.zero	8
 320      00000000 
 321              		.text
 322              	.Letext0:
 323              		.file 3 "src/../h/../lib/hw.h"
 324              		.file 4 "src/../h/scheduler.hpp"
 325              		.file 5 "src/../h/riscv.hpp"
 326              		.file 6 "src/../h/syscall_c.hpp"
 2541              		.align	3
 2544              	DW.ref.__gxx_personality_v0:
 2545 0000 00000000 		.dword	__gxx_personality_v0
 2545      00000000 
 2546              		.ident	"GCC: (Ubuntu 9.4.0-1ubuntu1~20.04) 9.4.0"
 2547              		.section	.note.GNU-stack,"",@progbits
GAS LISTING /tmp/ccnjDXQ6.s 			page 9

