GAS LISTING /tmp/ccBtD8PR.s 			page 1


   1              		.file	"workers.cpp"
   2              		.option pic
   3              		.option norelax
   4              		.text
   5              	.Ltext0:
   6              		.align	2
   8              	_ZL9fibonaccim:
   9              	.LFB30:
  10              		.file 1 "src/workers.cpp"
   1:src/workers.cpp **** //
   2:src/workers.cpp **** // Created by marko on 20.4.22..
   3:src/workers.cpp **** //
   4:src/workers.cpp **** 
   5:src/workers.cpp **** #include "../lib/hw.h"
   6:src/workers.cpp **** #include "../h/tcb.hpp"
   7:src/workers.cpp **** #include "../h/print.hpp"
   8:src/workers.cpp **** #include "../h/syscall_c.hpp"
   9:src/workers.cpp **** #include "../h/_sem.hpp"
  10:src/workers.cpp **** 
  11:src/workers.cpp **** extern thread_t handle1;
  12:src/workers.cpp **** extern _sem* newsem;
  13:src/workers.cpp **** void workerBodyA()
  14:src/workers.cpp **** {
  15:src/workers.cpp ****     for (uint64 i = 0; i < 10; i++)
  16:src/workers.cpp ****     {
  17:src/workers.cpp ****         printString("A: i=");
  18:src/workers.cpp ****         printInteger(i);
  19:src/workers.cpp ****         printString("\n");
  20:src/workers.cpp ****         for (uint64 j = 0; j < 10000; j++)
  21:src/workers.cpp ****         {
  22:src/workers.cpp ****             for (uint64 k = 0; k < 30000; k++)
  23:src/workers.cpp ****             {
  24:src/workers.cpp ****                 // busy wait
  25:src/workers.cpp ****             }
  26:src/workers.cpp **** //            TCB::yield();
  27:src/workers.cpp ****         }
  28:src/workers.cpp ****     }
  29:src/workers.cpp **** }
  30:src/workers.cpp **** 
  31:src/workers.cpp **** void workerBodyB()
  32:src/workers.cpp **** {
  33:src/workers.cpp ****     for (uint64 i = 0; i < 16; i++)
  34:src/workers.cpp ****     {
  35:src/workers.cpp ****         printString("B: i=");
  36:src/workers.cpp ****         printInteger(i);
  37:src/workers.cpp ****         printString("\n");
  38:src/workers.cpp ****         for (uint64 j = 0; j < 10000; j++)
  39:src/workers.cpp ****         {
  40:src/workers.cpp ****             for (uint64 k = 0; k < 30000; k++)
  41:src/workers.cpp ****             {
  42:src/workers.cpp ****                 // busy wait
  43:src/workers.cpp ****             }
  44:src/workers.cpp **** //            TCB::yield();
  45:src/workers.cpp ****         }
  46:src/workers.cpp ****     }
  47:src/workers.cpp ****     newsem->signal();
  48:src/workers.cpp **** }
GAS LISTING /tmp/ccBtD8PR.s 			page 2


  49:src/workers.cpp **** 
  50:src/workers.cpp **** static uint64 fibonacci(uint64 n)
  51:src/workers.cpp **** {
  11              		.loc 1 51 1
  12              		.cfi_startproc
  13              	.LVL0:
  14 0000 130101FE 		addi	sp,sp,-32
  15              		.cfi_def_cfa_offset 32
  16 0004 233C1100 		sd	ra,24(sp)
  17 0008 23388100 		sd	s0,16(sp)
  18 000c 23349100 		sd	s1,8(sp)
  19 0010 23302101 		sd	s2,0(sp)
  20              		.cfi_offset 1, -8
  21              		.cfi_offset 8, -16
  22              		.cfi_offset 9, -24
  23              		.cfi_offset 18, -32
  24 0014 13040102 		addi	s0,sp,32
  25              		.cfi_def_cfa 8, 0
  26 0018 93040500 		mv	s1,a0
  52:src/workers.cpp ****     if (n == 0 || n == 1) { return n; }
  27              		.loc 1 52 5
  28 001c 93071000 		li	a5,1
  29 0020 63F8A702 		bleu	a0,a5,.L1
  53:src/workers.cpp ****     if (n % 10 == 0) { TCB::yield(); }
  30              		.loc 1 53 5
  31              		.loc 1 53 11 is_stmt 0
  32 0024 9307A000 		li	a5,10
  33 0028 B377F502 		remu	a5,a0,a5
  34              		.loc 1 53 5
  35 002c 638E0702 		beqz	a5,.L6
  36              	.LVL1:
  37              	.L3:
  54:src/workers.cpp ****     return fibonacci(n - 1) + fibonacci(n - 2);
  38              		.loc 1 54 5 is_stmt 1
  39              		.loc 1 54 21 is_stmt 0
  40 0030 1385F4FF 		addi	a0,s1,-1
  41 0034 97000000 		call	_ZL9fibonaccim
  41      E7800000 
  42              	.LVL2:
  43 003c 13090500 		mv	s2,a0
  44              		.loc 1 54 40
  45 0040 1385E4FF 		addi	a0,s1,-2
  46 0044 97000000 		call	_ZL9fibonaccim
  46      E7800000 
  47              	.LVL3:
  48              		.loc 1 54 46
  49 004c 3305A900 		add	a0,s2,a0
  50              	.L1:
  55:src/workers.cpp **** }
  51              		.loc 1 55 1
  52 0050 83308101 		ld	ra,24(sp)
  53              		.cfi_remember_state
  54              		.cfi_restore 1
  55 0054 03340101 		ld	s0,16(sp)
  56              		.cfi_restore 8
  57              		.cfi_def_cfa 2, 32
  58 0058 83348100 		ld	s1,8(sp)
GAS LISTING /tmp/ccBtD8PR.s 			page 3


  59              		.cfi_restore 9
  60              	.LVL4:
  61 005c 03390100 		ld	s2,0(sp)
  62              		.cfi_restore 18
  63 0060 13010102 		addi	sp,sp,32
  64              		.cfi_def_cfa_offset 0
  65 0064 67800000 		jr	ra
  66              	.LVL5:
  67              	.L6:
  68              		.cfi_restore_state
  53:src/workers.cpp ****     if (n % 10 == 0) { TCB::yield(); }
  69              		.loc 1 53 24 is_stmt 1 discriminator 1
  53:src/workers.cpp ****     if (n % 10 == 0) { TCB::yield(); }
  70              		.loc 1 53 34 is_stmt 0 discriminator 1
  71 0068 97000000 		call	_ZN3TCB5yieldEv@plt
  71      E7800000 
  72              	.LVL6:
  73 0070 6FF01FFC 		j	.L3
  74              		.cfi_endproc
  75              	.LFE30:
  77              		.section	.rodata.str1.8,"aMS",@progbits,1
  78              		.align	3
  79              	.LC0:
  80 0000 413A2069 		.string	"A: i="
  80      3D00
  81 0006 0000     		.align	3
  82              	.LC1:
  83 0008 0A00     		.string	"\n"
  84              		.text
  85              		.align	2
  86              		.globl	_Z11workerBodyAv
  88              	_Z11workerBodyAv:
  89              	.LFB28:
  14:src/workers.cpp ****     for (uint64 i = 0; i < 10; i++)
  90              		.loc 1 14 1 is_stmt 1
  91              		.cfi_startproc
  92 0074 130101FE 		addi	sp,sp,-32
  93              		.cfi_def_cfa_offset 32
  94 0078 233C1100 		sd	ra,24(sp)
  95 007c 23388100 		sd	s0,16(sp)
  96 0080 23349100 		sd	s1,8(sp)
  97              		.cfi_offset 1, -8
  98              		.cfi_offset 8, -16
  99              		.cfi_offset 9, -24
 100 0084 13040102 		addi	s0,sp,32
 101              		.cfi_def_cfa 8, 0
  15:src/workers.cpp ****     {
 102              		.loc 1 15 5
 103              	.LVL7:
 104              	.LBB2:
  15:src/workers.cpp ****     {
 105              		.loc 1 15 17 is_stmt 0
 106 0088 93040000 		li	s1,0
 107 008c 6F000003 		j	.L13
 108              	.LVL8:
 109              	.L10:
 110              	.LBB3:
GAS LISTING /tmp/ccBtD8PR.s 			page 4


 111              	.LBB4:
  20:src/workers.cpp ****         {
 112              		.loc 1 20 9 is_stmt 1 discriminator 2
 113 0090 93861600 		addi	a3,a3,1
 114              	.LVL9:
 115              	.L12:
  20:src/workers.cpp ****         {
 116              		.loc 1 20 30 discriminator 1
 117 0094 B7270000 		li	a5,8192
 118 0098 9387F770 		addi	a5,a5,1807
 119 009c 63EED700 		bgtu	a3,a5,.L9
 120              	.LBB5:
  22:src/workers.cpp ****             {
 121              		.loc 1 22 25 is_stmt 0
 122 00a0 13070000 		li	a4,0
 123              	.L11:
 124              	.LVL10:
  22:src/workers.cpp ****             {
 125              		.loc 1 22 34 is_stmt 1 discriminator 3
 126 00a4 B7770000 		li	a5,28672
 127 00a8 9387F752 		addi	a5,a5,1327
 128 00ac E3E2E7FE 		bgtu	a4,a5,.L10
  22:src/workers.cpp ****             {
 129              		.loc 1 22 13 discriminator 2
 130 00b0 13071700 		addi	a4,a4,1
 131              	.LVL11:
 132 00b4 6FF01FFF 		j	.L11
 133              	.LVL12:
 134              	.L9:
 135              	.LBE5:
 136              	.LBE4:
 137              	.LBE3:
  15:src/workers.cpp ****     {
 138              		.loc 1 15 5 discriminator 2
 139 00b8 93841400 		addi	s1,s1,1
 140              	.LVL13:
 141              	.L13:
  15:src/workers.cpp ****     {
 142              		.loc 1 15 26 discriminator 1
 143 00bc 93079000 		li	a5,9
 144 00c0 63EC9702 		bgtu	s1,a5,.L7
 145              	.LBB7:
  17:src/workers.cpp ****         printInteger(i);
 146              		.loc 1 17 9
  17:src/workers.cpp ****         printInteger(i);
 147              		.loc 1 17 20 is_stmt 0
 148 00c4 17050000 		lla	a0,.LC0
 148      13050500 
 149 00cc 97000000 		call	_Z11printStringPKc@plt
 149      E7800000 
 150              	.LVL14:
  18:src/workers.cpp ****         printString("\n");
 151              		.loc 1 18 9 is_stmt 1
  18:src/workers.cpp ****         printString("\n");
 152              		.loc 1 18 21 is_stmt 0
 153 00d4 13850400 		mv	a0,s1
 154 00d8 97000000 		call	_Z12printIntegerm@plt
GAS LISTING /tmp/ccBtD8PR.s 			page 5


 154      E7800000 
 155              	.LVL15:
  19:src/workers.cpp ****         for (uint64 j = 0; j < 10000; j++)
 156              		.loc 1 19 9 is_stmt 1
  19:src/workers.cpp ****         for (uint64 j = 0; j < 10000; j++)
 157              		.loc 1 19 20 is_stmt 0
 158 00e0 17050000 		lla	a0,.LC1
 158      13050500 
 159 00e8 97000000 		call	_Z11printStringPKc@plt
 159      E7800000 
 160              	.LVL16:
  20:src/workers.cpp ****         {
 161              		.loc 1 20 9 is_stmt 1
 162              	.LBB6:
  20:src/workers.cpp ****         {
 163              		.loc 1 20 21 is_stmt 0
 164 00f0 93060000 		li	a3,0
 165 00f4 6FF01FFA 		j	.L12
 166              	.LVL17:
 167              	.L7:
 168              	.LBE6:
 169              	.LBE7:
 170              	.LBE2:
  29:src/workers.cpp **** 
 171              		.loc 1 29 1
 172 00f8 83308101 		ld	ra,24(sp)
 173              		.cfi_restore 1
 174 00fc 03340101 		ld	s0,16(sp)
 175              		.cfi_restore 8
 176              		.cfi_def_cfa 2, 32
 177 0100 83348100 		ld	s1,8(sp)
 178              		.cfi_restore 9
 179              	.LVL18:
 180 0104 13010102 		addi	sp,sp,32
 181              		.cfi_def_cfa_offset 0
 182 0108 67800000 		jr	ra
 183              		.cfi_endproc
 184              	.LFE28:
 186              		.section	.rodata.str1.8
 187 000a 00000000 		.align	3
 187      0000
 188              	.LC2:
 189 0010 423A2069 		.string	"B: i="
 189      3D00
 190              		.text
 191              		.align	2
 192              		.globl	_Z11workerBodyBv
 194              	_Z11workerBodyBv:
 195              	.LFB29:
  32:src/workers.cpp ****     for (uint64 i = 0; i < 16; i++)
 196              		.loc 1 32 1 is_stmt 1
 197              		.cfi_startproc
 198 010c 130101FE 		addi	sp,sp,-32
 199              		.cfi_def_cfa_offset 32
 200 0110 233C1100 		sd	ra,24(sp)
 201 0114 23388100 		sd	s0,16(sp)
 202 0118 23349100 		sd	s1,8(sp)
GAS LISTING /tmp/ccBtD8PR.s 			page 6


 203              		.cfi_offset 1, -8
 204              		.cfi_offset 8, -16
 205              		.cfi_offset 9, -24
 206 011c 13040102 		addi	s0,sp,32
 207              		.cfi_def_cfa 8, 0
  33:src/workers.cpp ****     {
 208              		.loc 1 33 5
 209              	.LVL19:
 210              	.LBB8:
  33:src/workers.cpp ****     {
 211              		.loc 1 33 17 is_stmt 0
 212 0120 93040000 		li	s1,0
 213 0124 6F000003 		j	.L21
 214              	.LVL20:
 215              	.L18:
 216              	.LBB9:
 217              	.LBB10:
  38:src/workers.cpp ****         {
 218              		.loc 1 38 9 is_stmt 1 discriminator 2
 219 0128 93861600 		addi	a3,a3,1
 220              	.LVL21:
 221              	.L20:
  38:src/workers.cpp ****         {
 222              		.loc 1 38 30 discriminator 1
 223 012c B7270000 		li	a5,8192
 224 0130 9387F770 		addi	a5,a5,1807
 225 0134 63EED700 		bgtu	a3,a5,.L17
 226              	.LBB11:
  40:src/workers.cpp ****             {
 227              		.loc 1 40 25 is_stmt 0
 228 0138 13070000 		li	a4,0
 229              	.L19:
 230              	.LVL22:
  40:src/workers.cpp ****             {
 231              		.loc 1 40 34 is_stmt 1 discriminator 3
 232 013c B7770000 		li	a5,28672
 233 0140 9387F752 		addi	a5,a5,1327
 234 0144 E3E2E7FE 		bgtu	a4,a5,.L18
  40:src/workers.cpp ****             {
 235              		.loc 1 40 13 discriminator 2
 236 0148 13071700 		addi	a4,a4,1
 237              	.LVL23:
 238 014c 6FF01FFF 		j	.L19
 239              	.LVL24:
 240              	.L17:
 241              	.LBE11:
 242              	.LBE10:
 243              	.LBE9:
  33:src/workers.cpp ****     {
 244              		.loc 1 33 5 discriminator 2
 245 0150 93841400 		addi	s1,s1,1
 246              	.LVL25:
 247              	.L21:
  33:src/workers.cpp ****     {
 248              		.loc 1 33 26 discriminator 1
 249 0154 9307F000 		li	a5,15
 250 0158 63EC9702 		bgtu	s1,a5,.L16
GAS LISTING /tmp/ccBtD8PR.s 			page 7


 251              	.LBB13:
  35:src/workers.cpp ****         printInteger(i);
 252              		.loc 1 35 9
  35:src/workers.cpp ****         printInteger(i);
 253              		.loc 1 35 20 is_stmt 0
 254 015c 17050000 		lla	a0,.LC2
 254      13050500 
 255 0164 97000000 		call	_Z11printStringPKc@plt
 255      E7800000 
 256              	.LVL26:
  36:src/workers.cpp ****         printString("\n");
 257              		.loc 1 36 9 is_stmt 1
  36:src/workers.cpp ****         printString("\n");
 258              		.loc 1 36 21 is_stmt 0
 259 016c 13850400 		mv	a0,s1
 260 0170 97000000 		call	_Z12printIntegerm@plt
 260      E7800000 
 261              	.LVL27:
  37:src/workers.cpp ****         for (uint64 j = 0; j < 10000; j++)
 262              		.loc 1 37 9 is_stmt 1
  37:src/workers.cpp ****         for (uint64 j = 0; j < 10000; j++)
 263              		.loc 1 37 20 is_stmt 0
 264 0178 17050000 		lla	a0,.LC1
 264      13050500 
 265 0180 97000000 		call	_Z11printStringPKc@plt
 265      E7800000 
 266              	.LVL28:
  38:src/workers.cpp ****         {
 267              		.loc 1 38 9 is_stmt 1
 268              	.LBB12:
  38:src/workers.cpp ****         {
 269              		.loc 1 38 21 is_stmt 0
 270 0188 93060000 		li	a3,0
 271 018c 6FF01FFA 		j	.L20
 272              	.LVL29:
 273              	.L16:
 274              	.LBE12:
 275              	.LBE13:
 276              	.LBE8:
  47:src/workers.cpp **** }
 277              		.loc 1 47 5 is_stmt 1
  47:src/workers.cpp **** }
 278              		.loc 1 47 19 is_stmt 0
 279 0190 97070000 		la	a5,newsem
 279      83B70700 
 280 0198 03B50700 		ld	a0,0(a5)
 281 019c 97000000 		call	_ZN4_sem6signalEv@plt
 281      E7800000 
 282              	.LVL30:
  48:src/workers.cpp **** 
 283              		.loc 1 48 1
 284 01a4 83308101 		ld	ra,24(sp)
 285              		.cfi_restore 1
 286 01a8 03340101 		ld	s0,16(sp)
 287              		.cfi_restore 8
 288              		.cfi_def_cfa 2, 32
 289 01ac 83348100 		ld	s1,8(sp)
GAS LISTING /tmp/ccBtD8PR.s 			page 8


 290              		.cfi_restore 9
 291              	.LVL31:
 292 01b0 13010102 		addi	sp,sp,32
 293              		.cfi_def_cfa_offset 0
 294 01b4 67800000 		jr	ra
 295              		.cfi_endproc
 296              	.LFE29:
 298              		.section	.rodata.str1.8
 299 0016 0000     		.align	3
 300              	.LC3:
 301 0018 433A2069 		.string	"C: i="
 301      3D00
 302 001e 0000     		.align	3
 303              	.LC4:
 304 0020 433A2079 		.string	"C: yield\n"
 304      69656C64 
 304      0A00
 305 002a 00000000 		.align	3
 305      0000
 306              	.LC5:
 307 0030 433A2074 		.string	"C: t1="
 307      313D00
 308 0037 00       		.align	3
 309              	.LC6:
 310 0038 433A2066 		.string	"C: fibonaci="
 310      69626F6E 
 310      6163693D 
 310      00
 311              		.text
 312              		.align	2
 313              		.globl	_Z11workerBodyCv
 315              	_Z11workerBodyCv:
 316              	.LFB31:
  56:src/workers.cpp **** 
  57:src/workers.cpp **** void workerBodyC()
  58:src/workers.cpp **** {
 317              		.loc 1 58 1 is_stmt 1
 318              		.cfi_startproc
 319 01b8 130101FE 		addi	sp,sp,-32
 320              		.cfi_def_cfa_offset 32
 321 01bc 233C1100 		sd	ra,24(sp)
 322 01c0 23388100 		sd	s0,16(sp)
 323 01c4 23349100 		sd	s1,8(sp)
 324 01c8 23302101 		sd	s2,0(sp)
 325              		.cfi_offset 1, -8
 326              		.cfi_offset 8, -16
 327              		.cfi_offset 9, -24
 328              		.cfi_offset 18, -32
 329 01cc 13040102 		addi	s0,sp,32
 330              		.cfi_def_cfa 8, 0
  59:src/workers.cpp ****     uint8 i = 0;
 331              		.loc 1 59 5
 332              	.LVL32:
 333              		.loc 1 59 11 is_stmt 0
 334 01d0 93040000 		li	s1,0
 335 01d4 6F008003 		j	.L25
 336              	.LVL33:
GAS LISTING /tmp/ccBtD8PR.s 			page 9


 337              	.L29:
  60:src/workers.cpp ****     for (; i < 3; i++)
  61:src/workers.cpp ****     {
  62:src/workers.cpp ****         printString("C: i=");
 338              		.loc 1 62 9 is_stmt 1 discriminator 1
 339              		.loc 1 62 20 is_stmt 0 discriminator 1
 340 01d8 17050000 		lla	a0,.LC3
 340      13050500 
 341 01e0 97000000 		call	_Z11printStringPKc@plt
 341      E7800000 
 342              	.LVL34:
  63:src/workers.cpp ****         printInteger(i);
 343              		.loc 1 63 9 is_stmt 1 discriminator 1
 344              		.loc 1 63 21 is_stmt 0 discriminator 1
 345 01e8 13850400 		mv	a0,s1
 346 01ec 97000000 		call	_Z12printIntegerm@plt
 346      E7800000 
 347              	.LVL35:
  64:src/workers.cpp ****         printString("\n");
 348              		.loc 1 64 9 is_stmt 1 discriminator 1
 349              		.loc 1 64 20 is_stmt 0 discriminator 1
 350 01f4 17050000 		lla	a0,.LC1
 350      13050500 
 351 01fc 97000000 		call	_Z11printStringPKc@plt
 351      E7800000 
 352              	.LVL36:
  60:src/workers.cpp ****     for (; i < 3; i++)
 353              		.loc 1 60 5 is_stmt 1 discriminator 1
 354 0204 9B841400 		addiw	s1,s1,1
 355              	.LVL37:
 356 0208 93F4F40F 		andi	s1,s1,0xff
 357              	.LVL38:
 358              	.L25:
  60:src/workers.cpp ****     for (; i < 3; i++)
 359              		.loc 1 60 5 discriminator 2
  60:src/workers.cpp ****     for (; i < 3; i++)
 360              		.loc 1 60 14 discriminator 2
 361 020c 93072000 		li	a5,2
 362 0210 E3F497FC 		bleu	s1,a5,.L29
  65:src/workers.cpp ****     }
  66:src/workers.cpp ****     newsem->wait();
 363              		.loc 1 66 5
 364              		.loc 1 66 17 is_stmt 0
 365 0214 97070000 		la	a5,newsem
 365      83B70700 
 366 021c 03B50700 		ld	a0,0(a5)
 367 0220 97000000 		call	_ZN4_sem4waitEv@plt
 367      E7800000 
 368              	.LVL39:
  67:src/workers.cpp ****     printString("C: yield\n");
 369              		.loc 1 67 5 is_stmt 1
 370              		.loc 1 67 16 is_stmt 0
 371 0228 17050000 		lla	a0,.LC4
 371      13050500 
 372 0230 97000000 		call	_Z11printStringPKc@plt
 372      E7800000 
 373              	.LVL40:
GAS LISTING /tmp/ccBtD8PR.s 			page 10


  68:src/workers.cpp ****     __asm__ ("li t1, 7");
 374              		.loc 1 68 5 is_stmt 1
 375              		.loc 1 68 25 is_stmt 0
 376              	#APP
 377              	# 68 "src/workers.cpp" 1
  69              	    TCB::yield();
 378              		li t1, 7
 379              	# 0 "" 2
 380              		.loc 1 69 5 is_stmt 1
 381              		.loc 1 69 15 is_stmt 0
 382              	#NO_APP
 383 023c 97000000 		call	_ZN3TCB5yieldEv@plt
 383      E7800000 
 384              	.LVL41:
  70:src/workers.cpp **** 
  71:src/workers.cpp ****     uint64 t1 = 0;
 385              		.loc 1 71 5 is_stmt 1
  72:src/workers.cpp ****     __asm__ ("mv %[t1], t1" : [t1] "=r"(t1));
 386              		.loc 1 72 5
 387              		.loc 1 72 45 is_stmt 0
 388              	#APP
 389              	# 72 "src/workers.cpp" 1
  73              	
 390              		mv s2, t1
 391              	# 0 "" 2
 392              	.LVL42:
  74:src/workers.cpp ****     printString("C: t1=");
 393              		.loc 1 74 5 is_stmt 1
 394              		.loc 1 74 16 is_stmt 0
 395              	#NO_APP
 396 0248 17050000 		lla	a0,.LC5
 396      13050500 
 397 0250 97000000 		call	_Z11printStringPKc@plt
 397      E7800000 
 398              	.LVL43:
  75:src/workers.cpp ****     printInteger(t1);
 399              		.loc 1 75 5 is_stmt 1
 400              		.loc 1 75 17 is_stmt 0
 401 0258 13050900 		mv	a0,s2
 402 025c 97000000 		call	_Z12printIntegerm@plt
 402      E7800000 
 403              	.LVL44:
  76:src/workers.cpp ****     printString("\n");
 404              		.loc 1 76 5 is_stmt 1
 405              		.loc 1 76 16 is_stmt 0
 406 0264 17050000 		lla	a0,.LC1
 406      13050500 
 407 026c 97000000 		call	_Z11printStringPKc@plt
 407      E7800000 
 408              	.LVL45:
  77:src/workers.cpp **** 
  78:src/workers.cpp ****     uint64 result = fibonacci(12);
 409              		.loc 1 78 5 is_stmt 1
 410              		.loc 1 78 30 is_stmt 0
 411 0274 1305C000 		li	a0,12
 412 0278 97000000 		call	_ZL9fibonaccim
 412      E7800000 
GAS LISTING /tmp/ccBtD8PR.s 			page 11


 413              	.LVL46:
 414 0280 13090500 		mv	s2,a0
 415              	.LVL47:
  79:src/workers.cpp ****     printString("C: fibonaci=");
 416              		.loc 1 79 5 is_stmt 1
 417              		.loc 1 79 16 is_stmt 0
 418 0284 17050000 		lla	a0,.LC6
 418      13050500 
 419              	.LVL48:
 420 028c 97000000 		call	_Z11printStringPKc@plt
 420      E7800000 
 421              	.LVL49:
  80:src/workers.cpp ****     printInteger(result);
 422              		.loc 1 80 5 is_stmt 1
 423              		.loc 1 80 17 is_stmt 0
 424 0294 13050900 		mv	a0,s2
 425 0298 97000000 		call	_Z12printIntegerm@plt
 425      E7800000 
 426              	.LVL50:
  81:src/workers.cpp ****     printString("\n");
 427              		.loc 1 81 5 is_stmt 1
 428              		.loc 1 81 16 is_stmt 0
 429 02a0 17050000 		lla	a0,.LC1
 429      13050500 
 430 02a8 97000000 		call	_Z11printStringPKc@plt
 430      E7800000 
 431              	.LVL51:
 432 02b0 6F008003 		j	.L27
 433              	.L30:
  82:src/workers.cpp **** 
  83:src/workers.cpp ****     for (; i < 6; i++)
  84:src/workers.cpp ****     {
  85:src/workers.cpp ****         printString("C: i=");
 434              		.loc 1 85 9 is_stmt 1 discriminator 1
 435              		.loc 1 85 20 is_stmt 0 discriminator 1
 436 02b4 17050000 		lla	a0,.LC3
 436      13050500 
 437 02bc 97000000 		call	_Z11printStringPKc@plt
 437      E7800000 
 438              	.LVL52:
  86:src/workers.cpp ****         printInteger(i);
 439              		.loc 1 86 9 is_stmt 1 discriminator 1
 440              		.loc 1 86 21 is_stmt 0 discriminator 1
 441 02c4 13850400 		mv	a0,s1
 442 02c8 97000000 		call	_Z12printIntegerm@plt
 442      E7800000 
 443              	.LVL53:
  87:src/workers.cpp ****         printString("\n");
 444              		.loc 1 87 9 is_stmt 1 discriminator 1
 445              		.loc 1 87 20 is_stmt 0 discriminator 1
 446 02d0 17050000 		lla	a0,.LC1
 446      13050500 
 447 02d8 97000000 		call	_Z11printStringPKc@plt
 447      E7800000 
 448              	.LVL54:
  83:src/workers.cpp ****     {
 449              		.loc 1 83 5 is_stmt 1 discriminator 1
GAS LISTING /tmp/ccBtD8PR.s 			page 12


 450 02e0 9B841400 		addiw	s1,s1,1
 451              	.LVL55:
 452 02e4 93F4F40F 		andi	s1,s1,0xff
 453              	.LVL56:
 454              	.L27:
  83:src/workers.cpp ****     {
 455              		.loc 1 83 5 discriminator 2
  83:src/workers.cpp ****     {
 456              		.loc 1 83 14 discriminator 2
 457 02e8 93075000 		li	a5,5
 458 02ec E3F497FC 		bleu	s1,a5,.L30
  88:src/workers.cpp ****     }
  89:src/workers.cpp **** //    TCB::yield();
  90:src/workers.cpp **** }
 459              		.loc 1 90 1 is_stmt 0
 460 02f0 83308101 		ld	ra,24(sp)
 461              		.cfi_restore 1
 462 02f4 03340101 		ld	s0,16(sp)
 463              		.cfi_restore 8
 464              		.cfi_def_cfa 2, 32
 465 02f8 83348100 		ld	s1,8(sp)
 466              		.cfi_restore 9
 467              	.LVL57:
 468 02fc 03390100 		ld	s2,0(sp)
 469              		.cfi_restore 18
 470              	.LVL58:
 471 0300 13010102 		addi	sp,sp,32
 472              		.cfi_def_cfa_offset 0
 473 0304 67800000 		jr	ra
 474              		.cfi_endproc
 475              	.LFE31:
 477              		.section	.rodata.str1.8
 478 0045 000000   		.align	3
 479              	.LC7:
 480 0048 443A2069 		.string	"D: i="
 480      3D00
 481 004e 0000     		.align	3
 482              	.LC8:
 483 0050 443A2079 		.string	"D: yield\n"
 483      69656C64 
 483      0A00
 484 005a 00000000 		.align	3
 484      0000
 485              	.LC9:
 486 0060 443A2066 		.string	"D: fibonaci="
 486      69626F6E 
 486      6163693D 
 486      00
 487              		.text
 488              		.align	2
 489              		.globl	_Z11workerBodyDv
 491              	_Z11workerBodyDv:
 492              	.LFB32:
  91:src/workers.cpp **** 
  92:src/workers.cpp **** void workerBodyD()
  93:src/workers.cpp **** {
 493              		.loc 1 93 1 is_stmt 1
GAS LISTING /tmp/ccBtD8PR.s 			page 13


 494              		.cfi_startproc
 495 0308 130101FE 		addi	sp,sp,-32
 496              		.cfi_def_cfa_offset 32
 497 030c 233C1100 		sd	ra,24(sp)
 498 0310 23388100 		sd	s0,16(sp)
 499 0314 23349100 		sd	s1,8(sp)
 500 0318 23302101 		sd	s2,0(sp)
 501              		.cfi_offset 1, -8
 502              		.cfi_offset 8, -16
 503              		.cfi_offset 9, -24
 504              		.cfi_offset 18, -32
 505 031c 13040102 		addi	s0,sp,32
 506              		.cfi_def_cfa 8, 0
  94:src/workers.cpp ****     uint8 i = 10;
 507              		.loc 1 94 5
 508              	.LVL59:
 509              		.loc 1 94 11 is_stmt 0
 510 0320 9304A000 		li	s1,10
 511 0324 6F008003 		j	.L33
 512              	.LVL60:
 513              	.L37:
  95:src/workers.cpp ****     for (; i < 13; i++)
  96:src/workers.cpp ****     {
  97:src/workers.cpp ****         printString("D: i=");
 514              		.loc 1 97 9 is_stmt 1 discriminator 1
 515              		.loc 1 97 20 is_stmt 0 discriminator 1
 516 0328 17050000 		lla	a0,.LC7
 516      13050500 
 517 0330 97000000 		call	_Z11printStringPKc@plt
 517      E7800000 
 518              	.LVL61:
  98:src/workers.cpp ****         printInteger(i);
 519              		.loc 1 98 9 is_stmt 1 discriminator 1
 520              		.loc 1 98 21 is_stmt 0 discriminator 1
 521 0338 13850400 		mv	a0,s1
 522 033c 97000000 		call	_Z12printIntegerm@plt
 522      E7800000 
 523              	.LVL62:
  99:src/workers.cpp ****         printString("\n");
 524              		.loc 1 99 9 is_stmt 1 discriminator 1
 525              		.loc 1 99 20 is_stmt 0 discriminator 1
 526 0344 17050000 		lla	a0,.LC1
 526      13050500 
 527 034c 97000000 		call	_Z11printStringPKc@plt
 527      E7800000 
 528              	.LVL63:
  95:src/workers.cpp ****     for (; i < 13; i++)
 529              		.loc 1 95 5 is_stmt 1 discriminator 1
 530 0354 9B841400 		addiw	s1,s1,1
 531              	.LVL64:
 532 0358 93F4F40F 		andi	s1,s1,0xff
 533              	.LVL65:
 534              	.L33:
  95:src/workers.cpp ****     for (; i < 13; i++)
 535              		.loc 1 95 5 discriminator 2
  95:src/workers.cpp ****     for (; i < 13; i++)
 536              		.loc 1 95 14 discriminator 2
GAS LISTING /tmp/ccBtD8PR.s 			page 14


 537 035c 9307C000 		li	a5,12
 538 0360 E3F497FC 		bleu	s1,a5,.L37
 100:src/workers.cpp ****     }
 101:src/workers.cpp **** 
 102:src/workers.cpp ****     printString("D: yield\n");
 539              		.loc 1 102 5
 540              		.loc 1 102 16 is_stmt 0
 541 0364 17050000 		lla	a0,.LC8
 541      13050500 
 542 036c 97000000 		call	_Z11printStringPKc@plt
 542      E7800000 
 543              	.LVL66:
 103:src/workers.cpp ****     __asm__ ("li t1, 5");
 544              		.loc 1 103 5 is_stmt 1
 545              		.loc 1 103 25 is_stmt 0
 546              	#APP
 547              	# 103 "src/workers.cpp" 1
 104              	    TCB::yield();
 548              		li t1, 5
 549              	# 0 "" 2
 550              		.loc 1 104 5 is_stmt 1
 551              		.loc 1 104 15 is_stmt 0
 552              	#NO_APP
 553 0378 97000000 		call	_ZN3TCB5yieldEv@plt
 553      E7800000 
 554              	.LVL67:
 105:src/workers.cpp **** 
 106:src/workers.cpp ****     uint64 result = fibonacci(16);
 555              		.loc 1 106 5 is_stmt 1
 556              		.loc 1 106 30 is_stmt 0
 557 0380 13050001 		li	a0,16
 558 0384 97000000 		call	_ZL9fibonaccim
 558      E7800000 
 559              	.LVL68:
 560 038c 13090500 		mv	s2,a0
 561              	.LVL69:
 107:src/workers.cpp ****     printString("D: fibonaci=");
 562              		.loc 1 107 5 is_stmt 1
 563              		.loc 1 107 16 is_stmt 0
 564 0390 17050000 		lla	a0,.LC9
 564      13050500 
 565              	.LVL70:
 566 0398 97000000 		call	_Z11printStringPKc@plt
 566      E7800000 
 567              	.LVL71:
 108:src/workers.cpp ****     printInteger(result);
 568              		.loc 1 108 5 is_stmt 1
 569              		.loc 1 108 17 is_stmt 0
 570 03a0 13050900 		mv	a0,s2
 571 03a4 97000000 		call	_Z12printIntegerm@plt
 571      E7800000 
 572              	.LVL72:
 109:src/workers.cpp ****     printString("\n");
 573              		.loc 1 109 5 is_stmt 1
 574              		.loc 1 109 16 is_stmt 0
 575 03ac 17050000 		lla	a0,.LC1
 575      13050500 
GAS LISTING /tmp/ccBtD8PR.s 			page 15


 576 03b4 97000000 		call	_Z11printStringPKc@plt
 576      E7800000 
 577              	.LVL73:
 578 03bc 6F008003 		j	.L35
 579              	.L38:
 110:src/workers.cpp **** 
 111:src/workers.cpp ****     for (; i < 16; i++)
 112:src/workers.cpp ****     {
 113:src/workers.cpp ****         printString("D: i=");
 580              		.loc 1 113 9 is_stmt 1 discriminator 1
 581              		.loc 1 113 20 is_stmt 0 discriminator 1
 582 03c0 17050000 		lla	a0,.LC7
 582      13050500 
 583 03c8 97000000 		call	_Z11printStringPKc@plt
 583      E7800000 
 584              	.LVL74:
 114:src/workers.cpp ****         printInteger(i);
 585              		.loc 1 114 9 is_stmt 1 discriminator 1
 586              		.loc 1 114 21 is_stmt 0 discriminator 1
 587 03d0 13850400 		mv	a0,s1
 588 03d4 97000000 		call	_Z12printIntegerm@plt
 588      E7800000 
 589              	.LVL75:
 115:src/workers.cpp ****         printString("\n");
 590              		.loc 1 115 9 is_stmt 1 discriminator 1
 591              		.loc 1 115 20 is_stmt 0 discriminator 1
 592 03dc 17050000 		lla	a0,.LC1
 592      13050500 
 593 03e4 97000000 		call	_Z11printStringPKc@plt
 593      E7800000 
 594              	.LVL76:
 111:src/workers.cpp ****     {
 595              		.loc 1 111 5 is_stmt 1 discriminator 1
 596 03ec 9B841400 		addiw	s1,s1,1
 597              	.LVL77:
 598 03f0 93F4F40F 		andi	s1,s1,0xff
 599              	.LVL78:
 600              	.L35:
 111:src/workers.cpp ****     {
 601              		.loc 1 111 5 discriminator 2
 111:src/workers.cpp ****     {
 602              		.loc 1 111 14 discriminator 2
 603 03f4 9307F000 		li	a5,15
 604 03f8 E3F497FC 		bleu	s1,a5,.L38
 116:src/workers.cpp ****     }
 117:src/workers.cpp **** //    TCB::yield();
 118:src/workers.cpp **** }...
 605              		.loc 1 118 1 is_stmt 0
 606 03fc 83308101 		ld	ra,24(sp)
 607              		.cfi_restore 1
 608 0400 03340101 		ld	s0,16(sp)
 609              		.cfi_restore 8
 610              		.cfi_def_cfa 2, 32
 611 0404 83348100 		ld	s1,8(sp)
 612              		.cfi_restore 9
 613              	.LVL79:
 614 0408 03390100 		ld	s2,0(sp)
GAS LISTING /tmp/ccBtD8PR.s 			page 16


 615              		.cfi_restore 18
 616              	.LVL80:
 617 040c 13010102 		addi	sp,sp,32
 618              		.cfi_def_cfa_offset 0
 619 0410 67800000 		jr	ra
 620              		.cfi_endproc
 621              	.LFE32:
 623              	.Letext0:
 624              		.file 2 "src/../lib/hw.h"
 625              		.file 3 "src/../h/list.hpp"
 626              		.file 4 "src/../h/tcb.hpp"
 627              		.file 5 "src/../h/syscall_c.hpp"
 628              		.file 6 "src/../h/_sem.hpp"
 629              		.file 7 "src/../h/print.hpp"
GAS LISTING /tmp/ccBtD8PR.s 			page 17

