GAS LISTING /tmp/ccBtD8PR.s 			page 1


   1              		.file	"workers.cpp"
   2              		.option pic
   3              		.option norelax
   4              		.text
   5              	.Ltext0:
   6              		.align	2
   8              	_ZL9fibonaccim:
   9              	.LFB30:
  10              		.file 1 "src/workers.cpp"
   1:src/workers.cpp **** //
   2:src/workers.cpp **** // Created by marko on 20.4.22..
   3:src/workers.cpp **** //
   4:src/workers.cpp **** 
   5:src/workers.cpp **** #include "../lib/hw.h"
   6:src/workers.cpp **** #include "../h/tcb.hpp"
   7:src/workers.cpp **** #include "../h/print.hpp"
   8:src/workers.cpp **** #include "../h/syscall_c.hpp"
   9:src/workers.cpp **** #include "../h/_sem.hpp"
  10:src/workers.cpp **** 
  11:src/workers.cpp **** extern thread_t handle1;
  12:src/workers.cpp **** extern _sem* newsem;
  13:src/workers.cpp **** void workerBodyA()
  14:src/workers.cpp **** {
  15:src/workers.cpp ****     for (uint64 i = 0; i < 10; i++)
  16:src/workers.cpp ****     {
  17:src/workers.cpp ****         printString("A: i=");
  18:src/workers.cpp ****         printInteger(i);
  19:src/workers.cpp ****         printString("\n");
  20:src/workers.cpp ****         for (uint64 j = 0; j < 10000; j++)
  21:src/workers.cpp ****         {
  22:src/workers.cpp ****             for (uint64 k = 0; k < 30000; k++)
  23:src/workers.cpp ****             {
  24:src/workers.cpp ****                 // busy wait
  25:src/workers.cpp ****             }
  26:src/workers.cpp **** //            TCB::yield();
  27:src/workers.cpp ****         }
  28:src/workers.cpp ****     }
  29:src/workers.cpp **** }
  30:src/workers.cpp **** 
  31:src/workers.cpp **** void workerBodyB()
  32:src/workers.cpp **** {
  33:src/workers.cpp ****     for (uint64 i = 0; i < 16; i++)
  34:src/workers.cpp ****     {
  35:src/workers.cpp ****         printString("B: i=");
  36:src/workers.cpp ****         printInteger(i);
  37:src/workers.cpp ****         printString("\n");
  38:src/workers.cpp ****         for (uint64 j = 0; j < 10000; j++)
  39:src/workers.cpp ****         {
  40:src/workers.cpp ****             for (uint64 k = 0; k < 30000; k++)
  41:src/workers.cpp ****             {
  42:src/workers.cpp ****                 // busy wait
  43:src/workers.cpp ****             }
  44:src/workers.cpp **** //            TCB::yield();
  45:src/workers.cpp ****         }
  46:src/workers.cpp ****     }
  47:src/workers.cpp ****     newsem->signal();
  48:src/workers.cpp **** }
GAS LISTING /tmp/ccBtD8PR.s 			page 2


  49:src/workers.cpp **** 
  50:src/workers.cpp **** static uint64 fibonacci(uint64 n)
  51:src/workers.cpp **** {
  11              		.loc 1 51 1
  12              		.cfi_startproc
  13              	.LVL0:
  14 0000 130101FE 		addi	sp,sp,-32
  15              		.cfi_def_cfa_offset 32
  16 0004 233C1100 		sd	ra,24(sp)
  17 0008 23388100 		sd	s0,16(sp)
  18 000c 23349100 		sd	s1,8(sp)
  19 0010 23302101 		sd	s2,0(sp)
  20              		.cfi_offset 1, -8
  21              		.cfi_offset 8, -16
  22              		.cfi_offset 9, -24
  23              		.cfi_offset 18, -32
  24 0014 13040102 		addi	s0,sp,32
  25              		.cfi_def_cfa 8, 0
  26 0018 93040500 		mv	s1,a0
  52:src/workers.cpp ****     if (n == 0 || n == 1) { return n; }
  27              		.loc 1 52 5
  28 001c 93071000 		li	a5,1
  29 0020 63F8A702 		bleu	a0,a5,.L1
  53:src/workers.cpp ****     if (n % 10 == 0) { TCB::yield(); }
  30              		.loc 1 53 5
  31              		.loc 1 53 11 is_stmt 0
  32 0024 9307A000 		li	a5,10
  33 0028 B377F502 		remu	a5,a0,a5
  34              		.loc 1 53 5
  35 002c 638E0702 		beqz	a5,.L6
  36              	.LVL1:
  37              	.L3:
  54:src/workers.cpp ****     return fibonacci(n - 1) + fibonacci(n - 2);
  38              		.loc 1 54 5 is_stmt 1
  39              		.loc 1 54 21 is_stmt 0
  40 0030 1385F4FF 		addi	a0,s1,-1
  41 0034 97000000 		call	_ZL9fibonaccim
  41      E7800000 
  42              	.LVL2:
  43 003c 13090500 		mv	s2,a0
  44              		.loc 1 54 40
  45 0040 1385E4FF 		addi	a0,s1,-2
  46 0044 97000000 		call	_ZL9fibonaccim
  46      E7800000 
  47              	.LVL3:
  48              		.loc 1 54 46
  49 004c 3305A900 		add	a0,s2,a0
  50              	.L1:
  55:src/workers.cpp **** }
  51              		.loc 1 55 1
  52 0050 83308101 		ld	ra,24(sp)
  53              		.cfi_remember_state
  54              		.cfi_restore 1
  55 0054 03340101 		ld	s0,16(sp)
  56              		.cfi_restore 8
  57              		.cfi_def_cfa 2, 32
  58 0058 83348100 		ld	s1,8(sp)
GAS LISTING /tmp/ccBtD8PR.s 			page 3


  59              		.cfi_restore 9
  60              	.LVL4:
  61 005c 03390100 		ld	s2,0(sp)
  62              		.cfi_restore 18
  63 0060 13010102 		addi	sp,sp,32
  64              		.cfi_def_cfa_offset 0
  65 0064 67800000 		jr	ra
  66              	.LVL5:
  67              	.L6:
  68              		.cfi_restore_state
  53:src/workers.cpp ****     if (n % 10 == 0) { TCB::yield(); }
  69              		.loc 1 53 24 is_stmt 1 discriminator 1
  53:src/workers.cpp ****     if (n % 10 == 0) { TCB::yield(); }
  70              		.loc 1 53 34 is_stmt 0 discriminator 1
  71 0068 97000000 		call	_ZN3TCB5yieldEv@plt
  71      E7800000 
  72              	.LVL6:
  73 0070 6FF01FFC 		j	.L3
  74              		.cfi_endproc
  75              	.LFE30:
  77              		.section	.rodata.str1.8,"aMS",@progbits,1
  78              		.align	3
  79              	.LC0:
  80 0000 413A2069 		.string	"A: i="
  80      3D00
  81 0006 0000     		.align	3
  82              	.LC1:
  83 0008 0A00     		.string	"\n"
  84              		.text
  85              		.align	2
  86              		.globl	_Z11workerBodyAv
  88              	_Z11workerBodyAv:
  89              	.LFB28:
  14:src/workers.cpp ****     for (uint64 i = 0; i < 10; i++)
  90              		.loc 1 14 1 is_stmt 1
  91              		.cfi_startproc
  92 0074 130101FE 		addi	sp,sp,-32
  93              		.cfi_def_cfa_offset 32
  94 0078 233C1100 		sd	ra,24(sp)
  95 007c 23388100 		sd	s0,16(sp)
  96 0080 23349100 		sd	s1,8(sp)
  97              		.cfi_offset 1, -8
  98              		.cfi_offset 8, -16
  99              		.cfi_offset 9, -24
 100 0084 13040102 		addi	s0,sp,32
 101              		.cfi_def_cfa 8, 0
  15:src/workers.cpp ****     {
 102              		.loc 1 15 5
 103              	.LVL7:
 104              	.LBB2:
  15:src/workers.cpp ****     {
 105              		.loc 1 15 17 is_stmt 0
 106 0088 93040000 		li	s1,0
 107 008c 6F000003 		j	.L13
 108              	.LVL8:
 109              	.L10:
 110              	.LBB3:
GAS LISTING /tmp/ccBtD8PR.s 			page 4


 111              	.LBB4:
  20:src/workers.cpp ****         {
 112              		.loc 1 20 9 is_stmt 1 discriminator 2
 113 0090 93861600 		addi	a3,a3,1
 114              	.LVL9:
 115              	.L12:
  20:src/workers.cpp ****         {
 116              		.loc 1 20 30 discriminator 1
 117 0094 B7270000 		li	a5,8192
 118 0098 9387F770 		addi	a5,a5,1807
 119 009c 63EED700 		bgtu	a3,a5,.L9
 120              	.LBB5:
  22:src/workers.cpp ****             {
 121              		.loc 1 22 25 is_stmt 0
 122 00a0 13070000 		li	a4,0
 123              	.L11:
 124              	.LVL10:
  22:src/workers.cpp ****             {
 125              		.loc 1 22 34 is_stmt 1 discriminator 3
 126 00a4 B7770000 		li	a5,28672
 127 00a8 9387F752 		addi	a5,a5,1327
 128 00ac E3E2E7FE 		bgtu	a4,a5,.L10
  22:src/workers.cpp ****             {
 129              		.loc 1 22 13 discriminator 2
 130 00b0 13071700 		addi	a4,a4,1
 131              	.LVL11:
 132 00b4 6FF01FFF 		j	.L11
 133              	.LVL12:
 134              	.L9:
 135              	.LBE5:
 136              	.LBE4:
 137              	.LBE3:
  15:src/workers.cpp ****     {
 138              		.loc 1 15 5 discriminator 2
 139 00b8 93841400 		addi	s1,s1,1
 140              	.LVL13:
 141              	.L13:
  15:src/workers.cpp ****     {
 142              		.loc 1 15 26 discriminator 1
 143 00bc 93079000 		li	a5,9
 144 00c0 63EC9702 		bgtu	s1,a5,.L7
 145              	.LBB7:
  17:src/workers.cpp ****         printInteger(i);
 146              		.loc 1 17 9
  17:src/workers.cpp ****         printInteger(i);
 147              		.loc 1 17 20 is_stmt 0
 148 00c4 17050000 		lla	a0,.LC0
 148      13050500 
 149 00cc 97000000 		call	_Z11printStringPKc@plt
 149      E7800000 
 150              	.LVL14:
  18:src/workers.cpp ****         printString("\n");
 151              		.loc 1 18 9 is_stmt 1
  18:src/workers.cpp ****         printString("\n");
 152              		.loc 1 18 21 is_stmt 0
 153 00d4 13850400 		mv	a0,s1
 154 00d8 97000000 		call	_Z12printIntegerm@plt
GAS LISTING /tmp/ccBtD8PR.s 			page 5


 154      E7800000 
 155              	.LVL15:
  19:src/workers.cpp ****         for (uint64 j = 0; j < 10000; j++)
 156              		.loc 1 19 9 is_stmt 1
  19:src/workers.cpp ****         for (uint64 j = 0; j < 10000; j++)
 157              		.loc 1 19 20 is_stmt 0
 158 00e0 17050000 		lla	a0,.LC1
 158      13050500 
 159 00e8 97000000 		call	_Z11printStringPKc@plt
 159      E7800000 
 160              	.LVL16:
  20:src/workers.cpp ****         {
 161              		.loc 1 20 9 is_stmt 1
 162              	.LBB6:
  20:src/workers.cpp ****         {
 163              		.loc 1 20 21 is_stmt 0
 164 00f0 93060000 		li	a3,0
 165 00f4 6FF01FFA 		j	.L12
 166              	.LVL17:
 167              	.L7:
 168              	.LBE6:
 169              	.LBE7:
 170              	.LBE2:
  29:src/workers.cpp **** 
 171              		.loc 1 29 1
 172 00f8 83308101 		ld	ra,24(sp)
 173              		.cfi_restore 1
 174 00fc 03340101 		ld	s0,16(sp)
 175              		.cfi_restore 8
 176              		.cfi_def_cfa 2, 32
 177 0100 83348100 		ld	s1,8(sp)
 178              		.cfi_restore 9
 179              	.LVL18:
 180 0104 13010102 		addi	sp,sp,32
 181              		.cfi_def_cfa_offset 0
 182 0108 67800000 		jr	ra
 183              		.cfi_endproc
 184              	.LFE28:
 186              		.section	.rodata.str1.8
 187 000a 00000000 		.align	3
 187      0000
 188              	.LC2:
 189 0010 423A2069 		.string	"B: i="
 189      3D00
 190              		.text
 191              		.align	2
 192              		.globl	_Z11workerBodyBv
 194              	_Z11workerBodyBv:
 195              	.LFB29:
  32:src/workers.cpp ****     for (uint64 i = 0; i < 16; i++)
 196              		.loc 1 32 1 is_stmt 1
 197              		.cfi_startproc
 198 010c 130101FE 		addi	sp,sp,-32
 199              		.cfi_def_cfa_offset 32
 200 0110 233C1100 		sd	ra,24(sp)
 201 0114 23388100 		sd	s0,16(sp)
 202 0118 23349100 		sd	s1,8(sp)
GAS LISTING /tmp/ccBtD8PR.s 			page 6


 203              		.cfi_offset 1, -8
 204              		.cfi_offset 8, -16
 205              		.cfi_offset 9, -24
 206 011c 13040102 		addi	s0,sp,32
 207              		.cfi_def_cfa 8, 0
  33:src/workers.cpp ****     {
 208              		.loc 1 33 5
 209              	.LVL19:
 210              	.LBB8:
  33:src/workers.cpp ****     {
 211              		.loc 1 33 17 is_stmt 0
 212 0120 93040000 		li	s1,0
 213 0124 6F000003 		j	.L21
 214              	.LVL20:
 215              	.L18:
 216              	.LBB9:
 217              	.LBB10:
  38:src/workers.cpp ****         {
 218              		.loc 1 38 9 is_stmt 1 discriminator 2
 219 0128 93861600 		addi	a3,a3,1
 220              	.LVL21:
 221              	.L20:
  38:src/workers.cpp ****         {
 222              		.loc 1 38 30 discriminator 1
 223 012c B7270000 		li	a5,8192
 224 0130 9387F770 		addi	a5,a5,1807
 225 0134 63EED700 		bgtu	a3,a5,.L17
 226              	.LBB11:
  40:src/workers.cpp ****             {
 227              		.loc 1 40 25 is_stmt 0
 228 0138 13070000 		li	a4,0
 229              	.L19:
 230              	.LVL22:
  40:src/workers.cpp ****             {
 231              		.loc 1 40 34 is_stmt 1 discriminator 3
 232 013c B7770000 		li	a5,28672
 233 0140 9387F752 		addi	a5,a5,1327
 234 0144 E3E2E7FE 		bgtu	a4,a5,.L18
  40:src/workers.cpp ****             {
 235              		.loc 1 40 13 discriminator 2
 236 0148 13071700 		addi	a4,a4,1
 237              	.LVL23:
 238 014c 6FF01FFF 		j	.L19
 239              	.LVL24:
 240              	.L17:
 241              	.LBE11:
 242              	.LBE10:
 243              	.LBE9:
  33:src/workers.cpp ****     {
 244              		.loc 1 33 5 discriminator 2
 245 0150 93841400 		addi	s1,s1,1
 246              	.LVL25:
 247              	.L21:
  33:src/workers.cpp ****     {
 248              		.loc 1 33 26 discriminator 1
 249 0154 9307F000 		li	a5,15
 250 0158 63EC9702 		bgtu	s1,a5,.L16
GAS LISTING /tmp/ccBtD8PR.s 			page 7


 251              	.LBB13:
  35:src/workers.cpp ****         printInteger(i);
 252              		.loc 1 35 9
  35:src/workers.cpp ****         printInteger(i);
 253              		.loc 1 35 20 is_stmt 0
 254 015c 17050000 		lla	a0,.LC2
 254      13050500 
 255 0164 97000000 		call	_Z11printStringPKc@plt
 255      E7800000 
 256              	.LVL26:
  36:src/workers.cpp ****         printString("\n");
 257              		.loc 1 36 9 is_stmt 1
  36:src/workers.cpp ****         printString("\n");
 258              		.loc 1 36 21 is_stmt 0
 259 016c 13850400 		mv	a0,s1
 260 0170 97000000 		call	_Z12printIntegerm@plt
 260      E7800000 
 261              	.LVL27:
  37:src/workers.cpp ****         for (uint64 j = 0; j < 10000; j++)
 262              		.loc 1 37 9 is_stmt 1
  37:src/workers.cpp ****         for (uint64 j = 0; j < 10000; j++)
 263              		.loc 1 37 20 is_stmt 0
 264 0178 17050000 		lla	a0,.LC1
 264      13050500 
 265 0180 97000000 		call	_Z11printStringPKc@plt
 265      E7800000 
 266              	.LVL28:
  38:src/workers.cpp ****         {
 267              		.loc 1 38 9 is_stmt 1
 268              	.LBB12:
  38:src/workers.cpp ****         {
 269              		.loc 1 38 21 is_stmt 0
 270 0188 93060000 		li	a3,0
 271 018c 6FF01FFA 		j	.L20
 272              	.LVL29:
 273              	.L16:
 274              	.LBE12:
 275              	.LBE13:
 276              	.LBE8:
  47:src/workers.cpp **** }
 277              		.loc 1 47 5 is_stmt 1
  47:src/workers.cpp **** }
 278              		.loc 1 47 19 is_stmt 0
 279 0190 97070000 		la	a5,newsem
 279      83B70700 
 280 0198 03B50700 		ld	a0,0(a5)
 281 019c 97000000 		call	_ZN4_sem6signalEv@plt
 281      E7800000 
 282              	.LVL30:
  48:src/workers.cpp **** 
 283              		.loc 1 48 1
 284 01a4 83308101 		ld	ra,24(sp)
 285              		.cfi_restore 1
 286 01a8 03340101 		ld	s0,16(sp)
 287              		.cfi_restore 8
 288              		.cfi_def_cfa 2, 32
 289 01ac 83348100 		ld	s1,8(sp)
GAS LISTING /tmp/ccBtD8PR.s 			page 8


 290              		.cfi_restore 9
 291              	.LVL31:
 292 01b0 13010102 		addi	sp,sp,32
 293              		.cfi_def_cfa_offset 0
 294 01b4 67800000 		jr	ra
 295              		.cfi_endproc
 296              	.LFE29:
 298              		.section	.rodata.str1.8
 299 0016 0000     		.align	3
 300              	.LC3:
 301 0018 433A2069 		.string	"C: i="
 301      3D00
 302 001e 0000     		.align	3
 303              	.LC4:
 304 0020 433A2079 		.string	"C: yield\n"
 304      69656C64 
 304      0A00
 305 002a 00000000 		.align	3
 305      0000
 306              	.LC5:
 307 0030 433A2074 		.string	"C: t1="
 307      313D00
 308 0037 00       		.align	3
 309              	.LC6:
 310 0038 433A2066 		.string	"C: fibonaci="
 310      69626F6E 
 310      6163693D 
 310      00
 311              		.text
 312              		.align	2
 313              		.globl	_Z11workerBodyCv
 315              	_Z11workerBodyCv:
 316              	.LFB31:
  56:src/workers.cpp **** 
  57:src/workers.cpp **** void workerBodyC()
  58:src/workers.cpp **** {
 317              		.loc 1 58 1 is_stmt 1
 318              		.cfi_startproc
 319 01b8 130101FE 		addi	sp,sp,-32
 320              		.cfi_def_cfa_offset 32
 321 01bc 233C1100 		sd	ra,24(sp)
 322 01c0 23388100 		sd	s0,16(sp)
 323 01c4 23349100 		sd	s1,8(sp)
 324 01c8 23302101 		sd	s2,0(sp)
 325              		.cfi_offset 1, -8
 326              		.cfi_offset 8, -16
 327              		.cfi_offset 9, -24
 328              		.cfi_offset 18, -32
 329 01cc 13040102 		addi	s0,sp,32
 330              		.cfi_def_cfa 8, 0
  59:src/workers.cpp ****     uint8 i = 0;
 331              		.loc 1 59 5
 332              	.LVL32:
 333              		.loc 1 59 11 is_stmt 0
 334 01d0 93040000 		li	s1,0
 335 01d4 6F008003 		j	.L25
 336              	.LVL33:
GAS LISTING /tmp/ccBtD8PR.s 			page 9


 337              	.L29:
  60:src/workers.cpp ****     for (; i < 3; i++)
  61:src/workers.cpp ****     {
  62:src/workers.cpp ****         printString("C: i=");
 338              		.loc 1 62 9 is_stmt 1 discriminator 1
 339              		.loc 1 62 20 is_stmt 0 discriminator 1
 340 01d8 17050000 		lla	a0,.LC3
 340      13050500 
 341 01e0 97000000 		call	_Z11printStringPKc@plt
 341      E7800000 
 342              	.LVL34:
  63:src/workers.cpp ****         printInteger(i);
 343              		.loc 1 63 9 is_stmt 1 discriminator 1
 344              		.loc 1 63 21 is_stmt 0 discriminator 1
 345 01e8 13850400 		mv	a0,s1
 346 01ec 97000000 		call	_Z12printIntegerm@plt
 346      E7800000 
 347              	.LVL35:
  64:src/workers.cpp ****         printString("\n");
 348              		.loc 1 64 9 is_stmt 1 discriminator 1
 349              		.loc 1 64 20 is_stmt 0 discriminator 1
 350 01f4 17050000 		lla	a0,.LC1
 350      13050500 
 351 01fc 97000000 		call	_Z11printStringPKc@plt
 351      E7800000 
 352              	.LVL36:
  60:src/workers.cpp ****     for (; i < 3; i++)
 353              		.loc 1 60 5 is_stmt 1 discriminator 1
 354 0204 9B841400 		addiw	s1,s1,1
 355              	.LVL37:
 356 0208 93F4F40F 		andi	s1,s1,0xff
 357              	.LVL38:
 358              	.L25:
  60:src/workers.cpp ****     for (; i < 3; i++)
 359              		.loc 1 60 5 discriminator 2
  60:src/workers.cpp ****     for (; i < 3; i++)
 360              		.loc 1 60 14 discriminator 2
 361 020c 93072000 		li	a5,2
 362 0210 E3F497FC 		bleu	s1,a5,.L29
  65:src/workers.cpp ****     }
  66:src/workers.cpp ****     newsem->wait();
 363              		.loc 1 66 5
 364              		.loc 1 66 17 is_stmt 0
 365 0214 97070000 		la	a5,newsem
 365      83B70700 
 366 021c 03B50700 		ld	a0,0(a5)
 367 0220 97000000 		call	_ZN4_sem4waitEv@plt
 367      E7800000 
 368              	.LVL39:
  67:src/workers.cpp ****     printString("C: yield\n");
 369              		.loc 1 67 5 is_stmt 1
 370              		.loc 1 67 16 is_stmt 0
 371 0228 17050000 		lla	a0,.LC4
 371      13050500 
 372 0230 97000000 		call	_Z11printStringPKc@plt
 372      E7800000 
 373              	.LVL40:
GAS LISTING /tmp/ccBtD8PR.s 			page 10


  68:src/workers.cpp ****     __asm__ ("li t1, 7");
 374              		.loc 1 68 5 is_stmt 1
 375              		.loc 1 68 25 is_stmt 0
 376              	#APP
 377              	# 68 "src/workers.cpp" 1
  69              	    TCB::yield();
 378              		li t1, 7
 379              	# 0 "" 2
 380              		.loc 1 69 5 is_stmt 1
 381              		.loc 1 69 15 is_stmt 0
 382              	#NO_APP
 383 023c 97000000 		call	_ZN3TCB5yieldEv@plt
 383      E7800000 
 384              	.LVL41:
  70:src/workers.cpp **** 
  71:src/workers.cpp ****     uint64 t1 = 0;
 385              		.loc 1 71 5 is_stmt 1
  72:src/workers.cpp ****     __asm__ ("mv %[t1], t1" : [t1] "=r"(t1));
 386              		.loc 1 72 5
 387              		.loc 1 72 45 is_stmt 0
 388              	#APP
 389              	# 72 "src/workers.cpp" 1
  73              	
 390              		mv s2, t1
 391              	# 0 "" 2
 392              	.LVL42:
  74:src/workers.cpp ****     printString("C: t1=");
 393              		.loc 1 74 5 is_stmt 1
 394              		.loc 1 74 16 is_stmt 0
 395              	#NO_APP
 396 0248 17050000 		lla	a0,.LC5
 396      13050500 
 397 0250 97000000 		call	_Z11printStringPKc@plt
 397      E7800000 
 398              	.LVL43:
  75:src/workers.cpp ****     printInteger(t1);
 399              		.loc 1 75 5 is_stmt 1
 400              		.loc 1 75 17 is_stmt 0
 401 0258 13050900 		mv	a0,s2
 402 025c 97000000 		call	_Z12printIntegerm@plt
 402      E7800000 
 403              	.LVL44:
  76:src/workers.cpp ****     printString("\n");
 404              		.loc 1 76 5 is_stmt 1
 405              		.loc 1 76 16 is_stmt 0
 406 0264 17050000 		lla	a0,.LC1
 406      13050500 
 407 026c 97000000 		call	_Z11printStringPKc@plt
 407      E7800000 
 408              	.LVL45:
  77:src/workers.cpp **** 
  78:src/workers.cpp ****     uint64 result = fibonacci(12);
 409              		.loc 1 78 5 is_stmt 1
 410              		.loc 1 78 30 is_stmt 0
 411 0274 1305C000 		li	a0,12
 412 0278 97000000 		call	_ZL9fibonaccim
 412      E7800000 
GAS LISTING /tmp/ccBtD8PR.s 			page 11


 413              	.LVL46:
 414 0280 13090500 		mv	s2,a0
 415              	.LVL47:
  79:src/workers.cpp ****     printString("C: fibonaci=");
 416              		.loc 1 79 5 is_stmt 1
 417              		.loc 1 79 16 is_stmt 0
 418 0284 17050000 		lla	a0,.LC6
 418      13050500 
 419              	.LVL48:
 420 028c 97000000 		call	_Z11printStringPKc@plt
 420      E7800000 
 421              	.LVL49:
  80:src/workers.cpp ****     printInteger(result);
 422              		.loc 1 80 5 is_stmt 1
 423              		.loc 1 80 17 is_stmt 0
 424 0294 13050900 		mv	a0,s2
 425 0298 97000000 		call	_Z12printIntegerm@plt
 425      E7800000 
 426              	.LVL50:
  81:src/workers.cpp ****     printString("\n");
 427              		.loc 1 81 5 is_stmt 1
 428              		.loc 1 81 16 is_stmt 0
 429 02a0 17050000 		lla	a0,.LC1
 429      13050500 
 430 02a8 97000000 		call	_Z11printStringPKc@plt
 430      E7800000 
 431              	.LVL51:
 432 02b0 6F008003 		j	.L27
 433              	.L30:
  82:src/workers.cpp **** 
  83:src/workers.cpp ****     for (; i < 6; i++)
  84:src/workers.cpp ****     {
  85:src/workers.cpp ****         printString("C: i=");
 434              		.loc 1 85 9 is_stmt 1 discriminator 1
 435              		.loc 1 85 20 is_stmt 0 discriminator 1
 436 02b4 17050000 		lla	a0,.LC3
 436      13050500 
 437 02bc 97000000 		call	_Z11printStringPKc@plt
 437      E7800000 
 438              	.LVL52:
  86:src/workers.cpp ****         printInteger(i);
 439              		.loc 1 86 9 is_stmt 1 discriminator 1
 440              		.loc 1 86 21 is_stmt 0 discriminator 1
 441 02c4 13850400 		mv	a0,s1
 442 02c8 97000000 		call	_Z12printIntegerm@plt
 442      E7800000 
 443              	.LVL53:
  87:src/workers.cpp ****         printString("\n");
 444              		.loc 1 87 9 is_stmt 1 discriminator 1
 445              		.loc 1 87 20 is_stmt 0 discriminator 1
 446 02d0 17050000 		lla	a0,.LC1
 446      13050500 
 447 02d8 97000000 		call	_Z11printStringPKc@plt
 447      E7800000 
 448              	.LVL54:
  83:src/workers.cpp ****     {
 449              		.loc 1 83 5 is_stmt 1 discriminator 1
GAS LISTING /tmp/ccBtD8PR.s 			page 12


 450 02e0 9B841400 		addiw	s1,s1,1
 451              	.LVL55:
 452 02e4 93F4F40F 		andi	s1,s1,0xff
 453              	.LVL56:
 454              	.L27:
  83:src/workers.cpp ****     {
 455              		.loc 1 83 5 discriminator 2
  83:src/workers.cpp ****     {
 456              		.loc 1 83 14 discriminator 2
 457 02e8 93075000 		li	a5,5
 458 02ec E3F497FC 		bleu	s1,a5,.L30
  88:src/workers.cpp ****     }
  89:src/workers.cpp **** //    TCB::yield();
  90:src/workers.cpp **** }
 459              		.loc 1 90 1 is_stmt 0
 460 02f0 83308101 		ld	ra,24(sp)
 461              		.cfi_restore 1
 462 02f4 03340101 		ld	s0,16(sp)
 463              		.cfi_restore 8
 464              		.cfi_def_cfa 2, 32
 465 02f8 83348100 		ld	s1,8(sp)
 466              		.cfi_restore 9
 467              	.LVL57:
 468 02fc 03390100 		ld	s2,0(sp)
 469              		.cfi_restore 18
 470              	.LVL58:
 471 0300 13010102 		addi	sp,sp,32
 472              		.cfi_def_cfa_offset 0
 473 0304 67800000 		jr	ra
 474              		.cfi_endproc
 475              	.LFE31:
 477              		.section	.rodata.str1.8
 478 0045 000000   		.align	3
 479              	.LC7:
 480 0048 443A2069 		.string	"D: i="
 480      3D00
 481 004e 0000     		.align	3
 482              	.LC8:
 483 0050 443A2079 		.string	"D: yield\n"
 483      69656C64 
 483      0A00
 484 005a 00000000 		.align	3
 484      0000
 485              	.LC9:
 486 0060 443A2066 		.string	"D: fibonaci="
 486      69626F6E 
 486      6163693D 
 486      00
 487              		.text
 488              		.align	2
 489              		.globl	_Z11workerBodyDv
 491              	_Z11workerBodyDv:
 492              	.LFB32:
  91:src/workers.cpp **** 
  92:src/workers.cpp **** void workerBodyD()
  93:src/workers.cpp **** {
 493              		.loc 1 93 1 is_stmt 1
GAS LISTING /tmp/ccBtD8PR.s 			page 13


 494              		.cfi_startproc
 495 0308 130101FE 		addi	sp,sp,-32
 496              		.cfi_def_cfa_offset 32
 497 030c 233C1100 		sd	ra,24(sp)
 498 0310 23388100 		sd	s0,16(sp)
 499 0314 23349100 		sd	s1,8(sp)
 500 0318 23302101 		sd	s2,0(sp)
 501              		.cfi_offset 1, -8
 502              		.cfi_offset 8, -16
 503              		.cfi_offset 9, -24
 504              		.cfi_offset 18, -32
 505 031c 13040102 		addi	s0,sp,32
 506              		.cfi_def_cfa 8, 0
  94:src/workers.cpp ****     uint8 i = 10;
 507              		.loc 1 94 5
 508              	.LVL59:
 509              		.loc 1 94 11 is_stmt 0
 510 0320 9304A000 		li	s1,10
 511 0324 6F008003 		j	.L33
 512              	.LVL60:
 513              	.L37:
  95:src/workers.cpp ****     for (; i < 13; i++)
  96:src/workers.cpp ****     {
  97:src/workers.cpp ****         printString("D: i=");
 514              		.loc 1 97 9 is_stmt 1 discriminator 1
 515              		.loc 1 97 20 is_stmt 0 discriminator 1
 516 0328 17050000 		lla	a0,.LC7
 516      13050500 
 517 0330 97000000 		call	_Z11printStringPKc@plt
 517      E7800000 
 518              	.LVL61:
  98:src/workers.cpp ****         printInteger(i);
 519              		.loc 1 98 9 is_stmt 1 discriminator 1
 520              		.loc 1 98 21 is_stmt 0 discriminator 1
 521 0338 13850400 		mv	a0,s1
 522 033c 97000000 		call	_Z12printIntegerm@plt
 522      E7800000 
 523              	.LVL62:
  99:src/workers.cpp ****         printString("\n");
 524              		.loc 1 99 9 is_stmt 1 discriminator 1
 525              		.loc 1 99 20 is_stmt 0 discriminator 1
 526 0344 17050000 		lla	a0,.LC1
 526      13050500 
 527 034c 97000000 		call	_Z11printStringPKc@plt
 527      E7800000 
 528              	.LVL63:
  95:src/workers.cpp ****     for (; i < 13; i++)
 529              		.loc 1 95 5 is_stmt 1 discriminator 1
 530 0354 9B841400 		addiw	s1,s1,1
 531              	.LVL64:
 532 0358 93F4F40F 		andi	s1,s1,0xff
 533              	.LVL65:
 534              	.L33:
  95:src/workers.cpp ****     for (; i < 13; i++)
 535              		.loc 1 95 5 discriminator 2
  95:src/workers.cpp ****     for (; i < 13; i++)
 536              		.loc 1 95 14 discriminator 2
GAS LISTING /tmp/ccBtD8PR.s 			page 14


 537 035c 9307C000 		li	a5,12
 538 0360 E3F497FC 		bleu	s1,a5,.L37
 100:src/workers.cpp ****     }
 101:src/workers.cpp **** 
 102:src/workers.cpp ****     printString("D: yield\n");
 539              		.loc 1 102 5
 540              		.loc 1 102 16 is_stmt 0
 541 0364 17050000 		lla	a0,.LC8
 541      13050500 
 542 036c 97000000 		call	_Z11printStringPKc@plt
 542      E7800000 
 543              	.LVL66:
 103:src/workers.cpp ****     __asm__ ("li t1, 5");
 544              		.loc 1 103 5 is_stmt 1
 545              		.loc 1 103 25 is_stmt 0
 546              	#APP
 547              	# 103 "src/workers.cpp" 1
 104              	    TCB::yield();
 548              		li t1, 5
 549              	# 0 "" 2
 550              		.loc 1 104 5 is_stmt 1
 551              		.loc 1 104 15 is_stmt 0
 552              	#NO_APP
 553 0378 97000000 		call	_ZN3TCB5yieldEv@plt
 553      E7800000 
 554              	.LVL67:
 105:src/workers.cpp **** 
 106:src/workers.cpp ****     uint64 result = fibonacci(16);
 555              		.loc 1 106 5 is_stmt 1
 556              		.loc 1 106 30 is_stmt 0
 557 0380 13050001 		li	a0,16
 558 0384 97000000 		call	_ZL9fibonaccim
 558      E7800000 
 559              	.LVL68:
 560 038c 13090500 		mv	s2,a0
 561              	.LVL69:
 107:src/workers.cpp ****     printString("D: fibonaci=");
 562              		.loc 1 107 5 is_stmt 1
 563              		.loc 1 107 16 is_stmt 0
 564 0390 17050000 		lla	a0,.LC9
 564      13050500 
 565              	.LVL70:
 566 0398 97000000 		call	_Z11printStringPKc@plt
 566      E7800000 
 567              	.LVL71:
 108:src/workers.cpp ****     printInteger(result);
 568              		.loc 1 108 5 is_stmt 1
 569              		.loc 1 108 17 is_stmt 0
 570 03a0 13050900 		mv	a0,s2
 571 03a4 97000000 		call	_Z12printIntegerm@plt
 571      E7800000 
 572              	.LVL72:
 109:src/workers.cpp ****     printString("\n");
 573              		.loc 1 109 5 is_stmt 1
 574              		.loc 1 109 16 is_stmt 0
 575 03ac 17050000 		lla	a0,.LC1
 575      13050500 
GAS LISTING /tmp/ccBtD8PR.s 			page 15


 576 03b4 97000000 		call	_Z11printStringPKc@plt
 576      E7800000 
 577              	.LVL73:
 578 03bc 6F008003 		j	.L35
 579              	.L38:
 110:src/workers.cpp **** 
 111:src/workers.cpp ****     for (; i < 16; i++)
 112:src/workers.cpp ****     {
 113:src/workers.cpp ****         printString("D: i=");
 580              		.loc 1 113 9 is_stmt 1 discriminator 1
 581              		.loc 1 113 20 is_stmt 0 discriminator 1
 582 03c0 17050000 		lla	a0,.LC7
 582      13050500 
 583 03c8 97000000 		call	_Z11printStringPKc@plt
 583      E7800000 
 584              	.LVL74:
 114:src/workers.cpp ****         printInteger(i);
 585              		.loc 1 114 9 is_stmt 1 discriminator 1
 586              		.loc 1 114 21 is_stmt 0 discriminator 1
 587 03d0 13850400 		mv	a0,s1
 588 03d4 97000000 		call	_Z12printIntegerm@plt
 588      E7800000 
 589              	.LVL75:
 115:src/workers.cpp ****         printString("\n");
 590              		.loc 1 115 9 is_stmt 1 discriminator 1
 591              		.loc 1 115 20 is_stmt 0 discriminator 1
 592 03dc 17050000 		lla	a0,.LC1
 592      13050500 
 593 03e4 97000000 		call	_Z11printStringPKc@plt
 593      E7800000 
 594              	.LVL76:
 111:src/workers.cpp ****     {
 595              		.loc 1 111 5 is_stmt 1 discriminator 1
 596 03ec 9B841400 		addiw	s1,s1,1
 597              	.LVL77:
 598 03f0 93F4F40F 		andi	s1,s1,0xff
 599              	.LVL78:
 600              	.L35:
 111:src/workers.cpp ****     {
 601              		.loc 1 111 5 discriminator 2
 111:src/workers.cpp ****     {
 602              		.loc 1 111 14 discriminator 2
 603 03f4 9307F000 		li	a5,15
 604 03f8 E3F497FC 		bleu	s1,a5,.L38
 116:src/workers.cpp ****     }
 117:src/workers.cpp **** //    TCB::yield();
 118:src/workers.cpp **** }...
 605              		.loc 1 118 1 is_stmt 0
 606 03fc 83308101 		ld	ra,24(sp)
 607              		.cfi_restore 1
 608 0400 03340101 		ld	s0,16(sp)
 609              		.cfi_restore 8
 610              		.cfi_def_cfa 2, 32
 611 0404 83348100 		ld	s1,8(sp)
 612              		.cfi_restore 9
 613              	.LVL79:
 614 0408 03390100 		ld	s2,0(sp)
GAS LISTING /tmp/ccBtD8PR.s 			page 16


 615              		.cfi_restore 18
 616              	.LVL80:
 617 040c 13010102 		addi	sp,sp,32
 618              		.cfi_def_cfa_offset 0
 619 0410 67800000 		jr	ra
 620              		.cfi_endproc
 621              	.LFE32:
 623              	.Letext0:
 624              		.file 2 "src/../lib/hw.h"
 625              		.file 3 "src/../h/list.hpp"
 626              		.file 4 "src/../h/tcb.hpp"
 627              		.file 5 "src/../h/syscall_c.hpp"
 628              		.file 6 "src/../h/_sem.hpp"
 629              		.file 7 "src/../h/print.hpp"
GAS LISTING /tmp/ccBtD8PR.s 			page 17


DEFINED SYMBOLS
                            *ABS*:0000000000000000 workers.cpp
     /tmp/ccBtD8PR.s:8      .text:0000000000000000 _ZL9fibonaccim
     /tmp/ccBtD8PR.s:12     .text:0000000000000000 .L0 
     /tmp/ccBtD8PR.s:14     .text:0000000000000000 .L0 
     /tmp/ccBtD8PR.s:15     .text:0000000000000004 .L0 
     /tmp/ccBtD8PR.s:20     .text:0000000000000014 .L0 
     /tmp/ccBtD8PR.s:21     .text:0000000000000014 .L0 
     /tmp/ccBtD8PR.s:22     .text:0000000000000014 .L0 
     /tmp/ccBtD8PR.s:23     .text:0000000000000014 .L0 
     /tmp/ccBtD8PR.s:25     .text:0000000000000018 .L0 
     /tmp/ccBtD8PR.s:28     .text:000000000000001c .L0 
     /tmp/ccBtD8PR.s:31     .text:0000000000000024 .L0 
     /tmp/ccBtD8PR.s:32     .text:0000000000000024 .L0 
     /tmp/ccBtD8PR.s:35     .text:000000000000002c .L0 
     /tmp/ccBtD8PR.s:39     .text:0000000000000030 .L0 
     /tmp/ccBtD8PR.s:40     .text:0000000000000030 .L0 
     /tmp/ccBtD8PR.s:45     .text:0000000000000040 .L0 
     /tmp/ccBtD8PR.s:49     .text:000000000000004c .L0 
     /tmp/ccBtD8PR.s:52     .text:0000000000000050 .L0 
     /tmp/ccBtD8PR.s:53     .text:0000000000000054 .L0 
     /tmp/ccBtD8PR.s:54     .text:0000000000000054 .L0 
     /tmp/ccBtD8PR.s:56     .text:0000000000000058 .L0 
     /tmp/ccBtD8PR.s:57     .text:0000000000000058 .L0 
     /tmp/ccBtD8PR.s:59     .text:000000000000005c .L0 
     /tmp/ccBtD8PR.s:62     .text:0000000000000060 .L0 
     /tmp/ccBtD8PR.s:64     .text:0000000000000064 .L0 
     /tmp/ccBtD8PR.s:68     .text:0000000000000068 .L0 
     /tmp/ccBtD8PR.s:70     .text:0000000000000068 .L0 
     /tmp/ccBtD8PR.s:71     .text:0000000000000068 .L0 
     /tmp/ccBtD8PR.s:74     .text:0000000000000074 .L0 
     /tmp/ccBtD8PR.s:88     .text:0000000000000074 _Z11workerBodyAv
     /tmp/ccBtD8PR.s:91     .text:0000000000000074 .L0 
     /tmp/ccBtD8PR.s:92     .text:0000000000000074 .L0 
     /tmp/ccBtD8PR.s:93     .text:0000000000000078 .L0 
     /tmp/ccBtD8PR.s:97     .text:0000000000000084 .L0 
     /tmp/ccBtD8PR.s:98     .text:0000000000000084 .L0 
     /tmp/ccBtD8PR.s:99     .text:0000000000000084 .L0 
     /tmp/ccBtD8PR.s:101    .text:0000000000000088 .L0 
     /tmp/ccBtD8PR.s:105    .text:0000000000000088 .L0 
     /tmp/ccBtD8PR.s:106    .text:0000000000000088 .L0 
     /tmp/ccBtD8PR.s:113    .text:0000000000000090 .L0 
     /tmp/ccBtD8PR.s:117    .text:0000000000000094 .L0 
     /tmp/ccBtD8PR.s:122    .text:00000000000000a0 .L0 
     /tmp/ccBtD8PR.s:126    .text:00000000000000a4 .L0 
     /tmp/ccBtD8PR.s:130    .text:00000000000000b0 .L0 
     /tmp/ccBtD8PR.s:139    .text:00000000000000b8 .L0 
     /tmp/ccBtD8PR.s:143    .text:00000000000000bc .L0 
     /tmp/ccBtD8PR.s:147    .text:00000000000000c4 .L0 
     /tmp/ccBtD8PR.s:148    .text:00000000000000c4 .L0 
     /tmp/ccBtD8PR.s:152    .text:00000000000000d4 .L0 
     /tmp/ccBtD8PR.s:153    .text:00000000000000d4 .L0 
     /tmp/ccBtD8PR.s:157    .text:00000000000000e0 .L0 
     /tmp/ccBtD8PR.s:158    .text:00000000000000e0 .L0 
     /tmp/ccBtD8PR.s:163    .text:00000000000000f0 .L0 
     /tmp/ccBtD8PR.s:164    .text:00000000000000f0 .L0 
     /tmp/ccBtD8PR.s:172    .text:00000000000000f8 .L0 
GAS LISTING /tmp/ccBtD8PR.s 			page 18


     /tmp/ccBtD8PR.s:173    .text:00000000000000fc .L0 
     /tmp/ccBtD8PR.s:175    .text:0000000000000100 .L0 
     /tmp/ccBtD8PR.s:176    .text:0000000000000100 .L0 
     /tmp/ccBtD8PR.s:178    .text:0000000000000104 .L0 
     /tmp/ccBtD8PR.s:181    .text:0000000000000108 .L0 
     /tmp/ccBtD8PR.s:183    .text:000000000000010c .L0 
     /tmp/ccBtD8PR.s:194    .text:000000000000010c _Z11workerBodyBv
     /tmp/ccBtD8PR.s:197    .text:000000000000010c .L0 
     /tmp/ccBtD8PR.s:198    .text:000000000000010c .L0 
     /tmp/ccBtD8PR.s:199    .text:0000000000000110 .L0 
     /tmp/ccBtD8PR.s:203    .text:000000000000011c .L0 
     /tmp/ccBtD8PR.s:204    .text:000000000000011c .L0 
     /tmp/ccBtD8PR.s:205    .text:000000000000011c .L0 
     /tmp/ccBtD8PR.s:207    .text:0000000000000120 .L0 
     /tmp/ccBtD8PR.s:211    .text:0000000000000120 .L0 
     /tmp/ccBtD8PR.s:212    .text:0000000000000120 .L0 
     /tmp/ccBtD8PR.s:219    .text:0000000000000128 .L0 
     /tmp/ccBtD8PR.s:223    .text:000000000000012c .L0 
     /tmp/ccBtD8PR.s:228    .text:0000000000000138 .L0 
     /tmp/ccBtD8PR.s:232    .text:000000000000013c .L0 
     /tmp/ccBtD8PR.s:236    .text:0000000000000148 .L0 
     /tmp/ccBtD8PR.s:245    .text:0000000000000150 .L0 
     /tmp/ccBtD8PR.s:249    .text:0000000000000154 .L0 
     /tmp/ccBtD8PR.s:253    .text:000000000000015c .L0 
     /tmp/ccBtD8PR.s:254    .text:000000000000015c .L0 
     /tmp/ccBtD8PR.s:258    .text:000000000000016c .L0 
     /tmp/ccBtD8PR.s:259    .text:000000000000016c .L0 
     /tmp/ccBtD8PR.s:263    .text:0000000000000178 .L0 
     /tmp/ccBtD8PR.s:264    .text:0000000000000178 .L0 
     /tmp/ccBtD8PR.s:269    .text:0000000000000188 .L0 
     /tmp/ccBtD8PR.s:270    .text:0000000000000188 .L0 
     /tmp/ccBtD8PR.s:278    .text:0000000000000190 .L0 
     /tmp/ccBtD8PR.s:279    .text:0000000000000190 .L0 
     /tmp/ccBtD8PR.s:284    .text:00000000000001a4 .L0 
     /tmp/ccBtD8PR.s:285    .text:00000000000001a8 .L0 
     /tmp/ccBtD8PR.s:287    .text:00000000000001ac .L0 
     /tmp/ccBtD8PR.s:288    .text:00000000000001ac .L0 
     /tmp/ccBtD8PR.s:290    .text:00000000000001b0 .L0 
     /tmp/ccBtD8PR.s:293    .text:00000000000001b4 .L0 
     /tmp/ccBtD8PR.s:295    .text:00000000000001b8 .L0 
     /tmp/ccBtD8PR.s:315    .text:00000000000001b8 _Z11workerBodyCv
     /tmp/ccBtD8PR.s:318    .text:00000000000001b8 .L0 
     /tmp/ccBtD8PR.s:319    .text:00000000000001b8 .L0 
     /tmp/ccBtD8PR.s:320    .text:00000000000001bc .L0 
     /tmp/ccBtD8PR.s:325    .text:00000000000001cc .L0 
     /tmp/ccBtD8PR.s:326    .text:00000000000001cc .L0 
     /tmp/ccBtD8PR.s:327    .text:00000000000001cc .L0 
     /tmp/ccBtD8PR.s:328    .text:00000000000001cc .L0 
     /tmp/ccBtD8PR.s:330    .text:00000000000001d0 .L0 
     /tmp/ccBtD8PR.s:333    .text:00000000000001d0 .L0 
     /tmp/ccBtD8PR.s:334    .text:00000000000001d0 .L0 
     /tmp/ccBtD8PR.s:339    .text:00000000000001d8 .L0 
     /tmp/ccBtD8PR.s:340    .text:00000000000001d8 .L0 
     /tmp/ccBtD8PR.s:344    .text:00000000000001e8 .L0 
     /tmp/ccBtD8PR.s:345    .text:00000000000001e8 .L0 
     /tmp/ccBtD8PR.s:349    .text:00000000000001f4 .L0 
     /tmp/ccBtD8PR.s:350    .text:00000000000001f4 .L0 
GAS LISTING /tmp/ccBtD8PR.s 			page 19


     /tmp/ccBtD8PR.s:354    .text:0000000000000204 .L0 
     /tmp/ccBtD8PR.s:360    .text:000000000000020c .L0 
     /tmp/ccBtD8PR.s:361    .text:000000000000020c .L0 
     /tmp/ccBtD8PR.s:364    .text:0000000000000214 .L0 
     /tmp/ccBtD8PR.s:365    .text:0000000000000214 .L0 
     /tmp/ccBtD8PR.s:370    .text:0000000000000228 .L0 
     /tmp/ccBtD8PR.s:371    .text:0000000000000228 .L0 
     /tmp/ccBtD8PR.s:375    .text:0000000000000238 .L0 
     src/workers.cpp:68     .text:0000000000000238 .L0 
     /tmp/ccBtD8PR.s:381    .text:000000000000023c .L0 
     /tmp/ccBtD8PR.s:383    .text:000000000000023c .L0 
     /tmp/ccBtD8PR.s:386    .text:0000000000000244 .L0 
     /tmp/ccBtD8PR.s:387    .text:0000000000000244 .L0 
     src/workers.cpp:72     .text:0000000000000244 .L0 
     /tmp/ccBtD8PR.s:394    .text:0000000000000248 .L0 
     /tmp/ccBtD8PR.s:396    .text:0000000000000248 .L0 
     /tmp/ccBtD8PR.s:400    .text:0000000000000258 .L0 
     /tmp/ccBtD8PR.s:401    .text:0000000000000258 .L0 
     /tmp/ccBtD8PR.s:405    .text:0000000000000264 .L0 
     /tmp/ccBtD8PR.s:406    .text:0000000000000264 .L0 
     /tmp/ccBtD8PR.s:410    .text:0000000000000274 .L0 
     /tmp/ccBtD8PR.s:411    .text:0000000000000274 .L0 
     /tmp/ccBtD8PR.s:417    .text:0000000000000284 .L0 
     /tmp/ccBtD8PR.s:418    .text:0000000000000284 .L0 
     /tmp/ccBtD8PR.s:423    .text:0000000000000294 .L0 
     /tmp/ccBtD8PR.s:424    .text:0000000000000294 .L0 
     /tmp/ccBtD8PR.s:428    .text:00000000000002a0 .L0 
     /tmp/ccBtD8PR.s:429    .text:00000000000002a0 .L0 
     /tmp/ccBtD8PR.s:435    .text:00000000000002b4 .L0 
     /tmp/ccBtD8PR.s:436    .text:00000000000002b4 .L0 
     /tmp/ccBtD8PR.s:440    .text:00000000000002c4 .L0 
     /tmp/ccBtD8PR.s:441    .text:00000000000002c4 .L0 
     /tmp/ccBtD8PR.s:445    .text:00000000000002d0 .L0 
     /tmp/ccBtD8PR.s:446    .text:00000000000002d0 .L0 
     /tmp/ccBtD8PR.s:450    .text:00000000000002e0 .L0 
     /tmp/ccBtD8PR.s:456    .text:00000000000002e8 .L0 
     /tmp/ccBtD8PR.s:457    .text:00000000000002e8 .L0 
     /tmp/ccBtD8PR.s:460    .text:00000000000002f0 .L0 
     /tmp/ccBtD8PR.s:461    .text:00000000000002f4 .L0 
     /tmp/ccBtD8PR.s:463    .text:00000000000002f8 .L0 
     /tmp/ccBtD8PR.s:464    .text:00000000000002f8 .L0 
     /tmp/ccBtD8PR.s:466    .text:00000000000002fc .L0 
     /tmp/ccBtD8PR.s:469    .text:0000000000000300 .L0 
     /tmp/ccBtD8PR.s:472    .text:0000000000000304 .L0 
     /tmp/ccBtD8PR.s:474    .text:0000000000000308 .L0 
     /tmp/ccBtD8PR.s:491    .text:0000000000000308 _Z11workerBodyDv
     /tmp/ccBtD8PR.s:494    .text:0000000000000308 .L0 
     /tmp/ccBtD8PR.s:495    .text:0000000000000308 .L0 
     /tmp/ccBtD8PR.s:496    .text:000000000000030c .L0 
     /tmp/ccBtD8PR.s:501    .text:000000000000031c .L0 
     /tmp/ccBtD8PR.s:502    .text:000000000000031c .L0 
     /tmp/ccBtD8PR.s:503    .text:000000000000031c .L0 
     /tmp/ccBtD8PR.s:504    .text:000000000000031c .L0 
     /tmp/ccBtD8PR.s:506    .text:0000000000000320 .L0 
     /tmp/ccBtD8PR.s:509    .text:0000000000000320 .L0 
     /tmp/ccBtD8PR.s:510    .text:0000000000000320 .L0 
     /tmp/ccBtD8PR.s:515    .text:0000000000000328 .L0 
GAS LISTING /tmp/ccBtD8PR.s 			page 20


     /tmp/ccBtD8PR.s:516    .text:0000000000000328 .L0 
     /tmp/ccBtD8PR.s:520    .text:0000000000000338 .L0 
     /tmp/ccBtD8PR.s:521    .text:0000000000000338 .L0 
     /tmp/ccBtD8PR.s:525    .text:0000000000000344 .L0 
     /tmp/ccBtD8PR.s:526    .text:0000000000000344 .L0 
     /tmp/ccBtD8PR.s:530    .text:0000000000000354 .L0 
     /tmp/ccBtD8PR.s:536    .text:000000000000035c .L0 
     /tmp/ccBtD8PR.s:537    .text:000000000000035c .L0 
     /tmp/ccBtD8PR.s:540    .text:0000000000000364 .L0 
     /tmp/ccBtD8PR.s:541    .text:0000000000000364 .L0 
     /tmp/ccBtD8PR.s:545    .text:0000000000000374 .L0 
     src/workers.cpp:103    .text:0000000000000374 .L0 
     /tmp/ccBtD8PR.s:551    .text:0000000000000378 .L0 
     /tmp/ccBtD8PR.s:553    .text:0000000000000378 .L0 
     /tmp/ccBtD8PR.s:556    .text:0000000000000380 .L0 
     /tmp/ccBtD8PR.s:557    .text:0000000000000380 .L0 
     /tmp/ccBtD8PR.s:563    .text:0000000000000390 .L0 
     /tmp/ccBtD8PR.s:564    .text:0000000000000390 .L0 
     /tmp/ccBtD8PR.s:569    .text:00000000000003a0 .L0 
     /tmp/ccBtD8PR.s:570    .text:00000000000003a0 .L0 
     /tmp/ccBtD8PR.s:574    .text:00000000000003ac .L0 
     /tmp/ccBtD8PR.s:575    .text:00000000000003ac .L0 
     /tmp/ccBtD8PR.s:581    .text:00000000000003c0 .L0 
     /tmp/ccBtD8PR.s:582    .text:00000000000003c0 .L0 
     /tmp/ccBtD8PR.s:586    .text:00000000000003d0 .L0 
     /tmp/ccBtD8PR.s:587    .text:00000000000003d0 .L0 
     /tmp/ccBtD8PR.s:591    .text:00000000000003dc .L0 
     /tmp/ccBtD8PR.s:592    .text:00000000000003dc .L0 
     /tmp/ccBtD8PR.s:596    .text:00000000000003ec .L0 
     /tmp/ccBtD8PR.s:602    .text:00000000000003f4 .L0 
     /tmp/ccBtD8PR.s:603    .text:00000000000003f4 .L0 
     /tmp/ccBtD8PR.s:606    .text:00000000000003fc .L0 
     /tmp/ccBtD8PR.s:607    .text:0000000000000400 .L0 
     /tmp/ccBtD8PR.s:609    .text:0000000000000404 .L0 
     /tmp/ccBtD8PR.s:610    .text:0000000000000404 .L0 
     /tmp/ccBtD8PR.s:612    .text:0000000000000408 .L0 
     /tmp/ccBtD8PR.s:615    .text:000000000000040c .L0 
     /tmp/ccBtD8PR.s:618    .text:0000000000000410 .L0 
     /tmp/ccBtD8PR.s:620    .text:0000000000000414 .L0 
     /tmp/ccBtD8PR.s:630    .text:0000000000000414 .L0 
     /tmp/ccBtD8PR.s:79     .rodata.str1.8:0000000000000000 .LC0
     /tmp/ccBtD8PR.s:148    .text:00000000000000c4 .L0 
     /tmp/ccBtD8PR.s:82     .rodata.str1.8:0000000000000008 .LC1
     /tmp/ccBtD8PR.s:158    .text:00000000000000e0 .L0 
     /tmp/ccBtD8PR.s:188    .rodata.str1.8:0000000000000010 .LC2
     /tmp/ccBtD8PR.s:254    .text:000000000000015c .L0 
     /tmp/ccBtD8PR.s:264    .text:0000000000000178 .L0 
     /tmp/ccBtD8PR.s:279    .text:0000000000000190 .L0 
     /tmp/ccBtD8PR.s:300    .rodata.str1.8:0000000000000018 .LC3
     /tmp/ccBtD8PR.s:340    .text:00000000000001d8 .L0 
     /tmp/ccBtD8PR.s:350    .text:00000000000001f4 .L0 
     /tmp/ccBtD8PR.s:365    .text:0000000000000214 .L0 
     /tmp/ccBtD8PR.s:303    .rodata.str1.8:0000000000000020 .LC4
     /tmp/ccBtD8PR.s:371    .text:0000000000000228 .L0 
     /tmp/ccBtD8PR.s:306    .rodata.str1.8:0000000000000030 .LC5
     /tmp/ccBtD8PR.s:396    .text:0000000000000248 .L0 
     /tmp/ccBtD8PR.s:406    .text:0000000000000264 .L0 
GAS LISTING /tmp/ccBtD8PR.s 			page 21


     /tmp/ccBtD8PR.s:309    .rodata.str1.8:0000000000000038 .LC6
     /tmp/ccBtD8PR.s:418    .text:0000000000000284 .L0 
     /tmp/ccBtD8PR.s:429    .text:00000000000002a0 .L0 
     /tmp/ccBtD8PR.s:436    .text:00000000000002b4 .L0 
     /tmp/ccBtD8PR.s:446    .text:00000000000002d0 .L0 
     /tmp/ccBtD8PR.s:479    .rodata.str1.8:0000000000000048 .LC7
     /tmp/ccBtD8PR.s:516    .text:0000000000000328 .L0 
     /tmp/ccBtD8PR.s:526    .text:0000000000000344 .L0 
     /tmp/ccBtD8PR.s:482    .rodata.str1.8:0000000000000050 .LC8
     /tmp/ccBtD8PR.s:541    .text:0000000000000364 .L0 
     /tmp/ccBtD8PR.s:485    .rodata.str1.8:0000000000000060 .LC9
     /tmp/ccBtD8PR.s:564    .text:0000000000000390 .L0 
     /tmp/ccBtD8PR.s:575    .text:00000000000003ac .L0 
     /tmp/ccBtD8PR.s:582    .text:00000000000003c0 .L0 
     /tmp/ccBtD8PR.s:592    .text:00000000000003dc .L0 
     /tmp/ccBtD8PR.s:50     .text:0000000000000050 .L1
     /tmp/ccBtD8PR.s:67     .text:0000000000000068 .L6
     /tmp/ccBtD8PR.s:37     .text:0000000000000030 .L3
     /tmp/ccBtD8PR.s:141    .text:00000000000000bc .L13
     /tmp/ccBtD8PR.s:134    .text:00000000000000b8 .L9
     /tmp/ccBtD8PR.s:109    .text:0000000000000090 .L10
     /tmp/ccBtD8PR.s:123    .text:00000000000000a4 .L11
     /tmp/ccBtD8PR.s:167    .text:00000000000000f8 .L7
     /tmp/ccBtD8PR.s:115    .text:0000000000000094 .L12
     /tmp/ccBtD8PR.s:247    .text:0000000000000154 .L21
     /tmp/ccBtD8PR.s:240    .text:0000000000000150 .L17
     /tmp/ccBtD8PR.s:215    .text:0000000000000128 .L18
     /tmp/ccBtD8PR.s:229    .text:000000000000013c .L19
     /tmp/ccBtD8PR.s:273    .text:0000000000000190 .L16
     /tmp/ccBtD8PR.s:221    .text:000000000000012c .L20
     /tmp/ccBtD8PR.s:358    .text:000000000000020c .L25
     /tmp/ccBtD8PR.s:337    .text:00000000000001d8 .L29
     /tmp/ccBtD8PR.s:454    .text:00000000000002e8 .L27
     /tmp/ccBtD8PR.s:433    .text:00000000000002b4 .L30
     /tmp/ccBtD8PR.s:534    .text:000000000000035c .L33
     /tmp/ccBtD8PR.s:513    .text:0000000000000328 .L37
     /tmp/ccBtD8PR.s:600    .text:00000000000003f4 .L35
     /tmp/ccBtD8PR.s:579    .text:00000000000003c0 .L38
     /tmp/ccBtD8PR.s:2089   .debug_abbrev:0000000000000000 .Ldebug_abbrev0
     /tmp/ccBtD8PR.s:3291   .debug_str:000000000000064d .LASF121
     /tmp/ccBtD8PR.s:3109   .debug_str:000000000000013f .LASF122
     /tmp/ccBtD8PR.s:3139   .debug_str:0000000000000209 .LASF123
     /tmp/ccBtD8PR.s:5      .text:0000000000000000 .Ltext0
     /tmp/ccBtD8PR.s:623    .text:0000000000000414 .Letext0
     /tmp/ccBtD8PR.s:3063   .debug_line:0000000000000000 .Ldebug_line0
     /tmp/ccBtD8PR.s:3217   .debug_str:0000000000000456 .LASF0
     /tmp/ccBtD8PR.s:3237   .debug_str:00000000000004eb .LASF1
     /tmp/ccBtD8PR.s:3201   .debug_str:00000000000003e2 .LASF2
     /tmp/ccBtD8PR.s:3129   .debug_str:00000000000001dd .LASF3
     /tmp/ccBtD8PR.s:3123   .debug_str:000000000000019d .LASF4
     /tmp/ccBtD8PR.s:3167   .debug_str:0000000000000311 .LASF5
     /tmp/ccBtD8PR.s:3273   .debug_str:00000000000005e2 .LASF6
     /tmp/ccBtD8PR.s:3093   .debug_str:00000000000000e4 .LASF7
     /tmp/ccBtD8PR.s:3239   .debug_str:00000000000004fe .LASF8
     /tmp/ccBtD8PR.s:3215   .debug_str:0000000000000443 .LASF9
     /tmp/ccBtD8PR.s:3309   .debug_str:000000000000078e .LASF10
     /tmp/ccBtD8PR.s:3147   .debug_str:0000000000000249 .LASF11
GAS LISTING /tmp/ccBtD8PR.s 			page 22


     /tmp/ccBtD8PR.s:3249   .debug_str:000000000000054b .LASF12
     /tmp/ccBtD8PR.s:3295   .debug_str:000000000000071d .LASF13
     /tmp/ccBtD8PR.s:3099   .debug_str:00000000000000fe .LASF14
     /tmp/ccBtD8PR.s:3077   .debug_str:0000000000000062 .LASF15
     /tmp/ccBtD8PR.s:3105   .debug_str:000000000000011d .LASF16
     /tmp/ccBtD8PR.s:3267   .debug_str:00000000000005be .LASF17
     /tmp/ccBtD8PR.s:3117   .debug_str:000000000000017c .LASF18
     /tmp/ccBtD8PR.s:3191   .debug_str:00000000000003aa .LASF48
     /tmp/ccBtD8PR.s:3193   .debug_str:00000000000003b4 .LASF124
     /tmp/ccBtD8PR.s:3121   .debug_str:0000000000000198 .LASF19
     /tmp/ccBtD8PR.s:3197   .debug_str:00000000000003c6 .LASF20
     /tmp/ccBtD8PR.s:3283   .debug_str:0000000000000625 .LASF21
     /tmp/ccBtD8PR.s:3287   .debug_str:000000000000063f .LASF22
     /tmp/ccBtD8PR.s:3165   .debug_str:000000000000030c .LASF23
     /tmp/ccBtD8PR.s:3221   .debug_str:000000000000046c .LASF25
     /tmp/ccBtD8PR.s:3265   .debug_str:00000000000005a7 .LASF28
     /tmp/ccBtD8PR.s:3207   .debug_str:000000000000040c .LASF125
     /tmp/ccBtD8PR.s:3153   .debug_str:0000000000000291 .LASF126
     /tmp/ccBtD8PR.s:3337   .debug_str:0000000000000841 .LASF24
     /tmp/ccBtD8PR.s:3199   .debug_str:00000000000003cb .LASF26
     /tmp/ccBtD8PR.s:3335   .debug_str:000000000000083c .LASF27
     /tmp/ccBtD8PR.s:3107   .debug_str:0000000000000129 .LASF29
     /tmp/ccBtD8PR.s:3141   .debug_str:0000000000000227 .LASF30
     /tmp/ccBtD8PR.s:3177   .debug_str:0000000000000338 .LASF31
     /tmp/ccBtD8PR.s:3301   .debug_str:0000000000000754 .LASF32
     /tmp/ccBtD8PR.s:3159   .debug_str:00000000000002c6 .LASF33
     /tmp/ccBtD8PR.s:3289   .debug_str:0000000000000644 .LASF34
     /tmp/ccBtD8PR.s:3127   .debug_str:00000000000001c0 .LASF35
     /tmp/ccBtD8PR.s:3145   .debug_str:0000000000000241 .LASF36
     /tmp/ccBtD8PR.s:3125   .debug_str:00000000000001a4 .LASF37
     /tmp/ccBtD8PR.s:3293   .debug_str:0000000000000711 .LASF38
     /tmp/ccBtD8PR.s:3071   .debug_str:0000000000000022 .LASF39
     /tmp/ccBtD8PR.s:3103   .debug_str:0000000000000113 .LASF40
     /tmp/ccBtD8PR.s:3181   .debug_str:000000000000035e .LASF41
     /tmp/ccBtD8PR.s:3225   .debug_str:000000000000048c .LASF42
     /tmp/ccBtD8PR.s:3085   .debug_str:0000000000000095 .LASF43
     /tmp/ccBtD8PR.s:3183   .debug_str:0000000000000379 .LASF44
     /tmp/ccBtD8PR.s:3327   .debug_str:00000000000007f3 .LASF45
     /tmp/ccBtD8PR.s:3261   .debug_str:0000000000000592 .LASF46
     /tmp/ccBtD8PR.s:3321   .debug_str:00000000000007cd .LASF47
     /tmp/ccBtD8PR.s:3081   .debug_str:000000000000007c .LASF127
     /tmp/ccBtD8PR.s:3157   .debug_str:00000000000002c1 .LASF49
     /tmp/ccBtD8PR.s:3255   .debug_str:0000000000000578 .LASF50
     /tmp/ccBtD8PR.s:3241   .debug_str:0000000000000511 .LASF51
     /tmp/ccBtD8PR.s:3113   .debug_str:0000000000000155 .LASF52
     /tmp/ccBtD8PR.s:3203   .debug_str:00000000000003f0 .LASF53
     /tmp/ccBtD8PR.s:3161   .debug_str:00000000000002e3 .LASF54
     /tmp/ccBtD8PR.s:3195   .debug_str:00000000000003b9 .LASF55
     /tmp/ccBtD8PR.s:3091   .debug_str:00000000000000cb .LASF56
     /tmp/ccBtD8PR.s:3179   .debug_str:0000000000000351 .LASF57
     /tmp/ccBtD8PR.s:3235   .debug_str:00000000000004cb .LASF58
     /tmp/ccBtD8PR.s:3257   .debug_str:0000000000000584 .LASF128
     /tmp/ccBtD8PR.s:3269   .debug_str:00000000000005d4 .LASF129
     /tmp/ccBtD8PR.s:3205   .debug_str:00000000000003fc .LASF130
     /tmp/ccBtD8PR.s:3131   .debug_str:00000000000001e3 .LASF59
     /tmp/ccBtD8PR.s:3163   .debug_str:00000000000002fa .LASF60
     /tmp/ccBtD8PR.s:3095   .debug_str:00000000000000eb .LASF61
GAS LISTING /tmp/ccBtD8PR.s 			page 23


     /tmp/ccBtD8PR.s:3149   .debug_str:0000000000000257 .LASF62
     /tmp/ccBtD8PR.s:3171   .debug_str:000000000000031f .LASF63
     /tmp/ccBtD8PR.s:3299   .debug_str:000000000000073e .LASF64
     /tmp/ccBtD8PR.s:3079   .debug_str:0000000000000072 .LASF65
     /tmp/ccBtD8PR.s:3245   .debug_str:0000000000000523 .LASF66
     /tmp/ccBtD8PR.s:3133   .debug_str:00000000000001e9 .LASF131
     /tmp/ccBtD8PR.s:3211   .debug_str:0000000000000422 .LASF132
     /tmp/ccBtD8PR.s:3175   .debug_str:0000000000000333 .LASF67
     /tmp/ccBtD8PR.s:3111   .debug_str:000000000000014f .LASF68
     /tmp/ccBtD8PR.s:3271   .debug_str:00000000000005da .LASF69
     /tmp/ccBtD8PR.s:3227   .debug_str:0000000000000497 .LASF70
     /tmp/ccBtD8PR.s:3173   .debug_str:000000000000032a .LASF71
     /tmp/ccBtD8PR.s:3067   .debug_str:0000000000000009 .LASF72
     /tmp/ccBtD8PR.s:3263   .debug_str:000000000000059a .LASF73
     /tmp/ccBtD8PR.s:3185   .debug_str:0000000000000382 .LASF74
     /tmp/ccBtD8PR.s:3155   .debug_str:00000000000002a8 .LASF76
     /tmp/ccBtD8PR.s:3315   .debug_str:00000000000007ae .LASF133
     /tmp/ccBtD8PR.s:3151   .debug_str:0000000000000269 .LASF134
     /tmp/ccBtD8PR.s:3219   .debug_str:0000000000000463 .LASF75
     /tmp/ccBtD8PR.s:3135   .debug_str:00000000000001f1 .LASF77
     /tmp/ccBtD8PR.s:3275   .debug_str:00000000000005f4 .LASF135
     /tmp/ccBtD8PR.s:3097   .debug_str:00000000000000f3 .LASF78
     /tmp/ccBtD8PR.s:3319   .debug_str:00000000000007c2 .LASF79
     /tmp/ccBtD8PR.s:3137   .debug_str:0000000000000204 .LASF80
     /tmp/ccBtD8PR.s:3277   .debug_str:0000000000000605 .LASF81
     /tmp/ccBtD8PR.s:3259   .debug_str:0000000000000589 .LASF82
     /tmp/ccBtD8PR.s:3247   .debug_str:0000000000000537 .LASF83
     /tmp/ccBtD8PR.s:3189   .debug_str:0000000000000398 .LASF84
     /tmp/ccBtD8PR.s:3073   .debug_str:0000000000000040 .LASF85
     /tmp/ccBtD8PR.s:3143   .debug_str:000000000000022f .LASF86
     /tmp/ccBtD8PR.s:3065   .debug_str:0000000000000000 .LASF87
     /tmp/ccBtD8PR.s:3325   .debug_str:00000000000007ee .LASF88
     /tmp/ccBtD8PR.s:3303   .debug_str:000000000000075f .LASF89
     /tmp/ccBtD8PR.s:3101   .debug_str:000000000000010e .LASF90
     /tmp/ccBtD8PR.s:3115   .debug_str:000000000000016c .LASF91
     /tmp/ccBtD8PR.s:3243   .debug_str:000000000000051c .LASF92
     /tmp/ccBtD8PR.s:3233   .debug_str:00000000000004b9 .LASF93
     /tmp/ccBtD8PR.s:3313   .debug_str:00000000000007a8 .LASF94
     /tmp/ccBtD8PR.s:3305   .debug_str:000000000000076c .LASF95
     /tmp/ccBtD8PR.s:3119   .debug_str:0000000000000192 .LASF96
     /tmp/ccBtD8PR.s:3297   .debug_str:000000000000072c .LASF97
     /tmp/ccBtD8PR.s:3317   .debug_str:00000000000007bc .LASF98
     /tmp/ccBtD8PR.s:3087   .debug_str:00000000000000b2 .LASF99
     /tmp/ccBtD8PR.s:3069   .debug_str:0000000000000011 .LASF100
     /tmp/ccBtD8PR.s:3187   .debug_str:0000000000000390 .LASF101
     /tmp/ccBtD8PR.s:3331   .debug_str:0000000000000820 .LASF102
     /tmp/ccBtD8PR.s:3279   .debug_str:000000000000060f .LASF103
     /tmp/ccBtD8PR.s:3281   .debug_str:000000000000061e .LASF104
     /tmp/ccBtD8PR.s:3333   .debug_str:0000000000000833 .LASF105
     /tmp/ccBtD8PR.s:3323   .debug_str:00000000000007e6 .LASF106
     /tmp/ccBtD8PR.s:3229   .debug_str:00000000000004a1 .LASF107
     /tmp/ccBtD8PR.s:3089   .debug_str:00000000000000bf .LASF108
     /tmp/ccBtD8PR.s:3231   .debug_str:00000000000004a8 .LASF109
     /tmp/ccBtD8PR.s:492    .text:0000000000000308 .LFB32
     /tmp/ccBtD8PR.s:621    .text:0000000000000414 .LFE32
     /tmp/ccBtD8PR.s:2874   .debug_loc:0000000000000000 .LLST10
     /tmp/ccBtD8PR.s:3169   .debug_str:0000000000000318 .LASF110
GAS LISTING /tmp/ccBtD8PR.s 			page 24


     /tmp/ccBtD8PR.s:2894   .debug_loc:000000000000005d .LLST11
     /tmp/ccBtD8PR.s:518    .text:0000000000000338 .LVL61
     /tmp/ccBtD8PR.s:523    .text:0000000000000344 .LVL62
     /tmp/ccBtD8PR.s:528    .text:0000000000000354 .LVL63
     /tmp/ccBtD8PR.s:543    .text:0000000000000374 .LVL66
     /tmp/ccBtD8PR.s:554    .text:0000000000000380 .LVL67
     /tmp/ccBtD8PR.s:559    .text:000000000000038c .LVL68
     /tmp/ccBtD8PR.s:567    .text:00000000000003a0 .LVL71
     /tmp/ccBtD8PR.s:572    .text:00000000000003ac .LVL72
     /tmp/ccBtD8PR.s:577    .text:00000000000003bc .LVL73
     /tmp/ccBtD8PR.s:584    .text:00000000000003d0 .LVL74
     /tmp/ccBtD8PR.s:589    .text:00000000000003dc .LVL75
     /tmp/ccBtD8PR.s:594    .text:00000000000003ec .LVL76
     /tmp/ccBtD8PR.s:3075   .debug_str:0000000000000056 .LASF111
     /tmp/ccBtD8PR.s:3307   .debug_str:000000000000077d .LASF112
     /tmp/ccBtD8PR.s:316    .text:00000000000001b8 .LFB31
     /tmp/ccBtD8PR.s:475    .text:0000000000000308 .LFE31
     /tmp/ccBtD8PR.s:2905   .debug_loc:0000000000000093 .LLST7
     /tmp/ccBtD8PR.s:2925   .debug_loc:00000000000000f0 .LLST8
     /tmp/ccBtD8PR.s:2933   .debug_loc:0000000000000114 .LLST9
     /tmp/ccBtD8PR.s:342    .text:00000000000001e8 .LVL34
     /tmp/ccBtD8PR.s:347    .text:00000000000001f4 .LVL35
     /tmp/ccBtD8PR.s:352    .text:0000000000000204 .LVL36
     /tmp/ccBtD8PR.s:368    .text:0000000000000228 .LVL39
     /tmp/ccBtD8PR.s:373    .text:0000000000000238 .LVL40
     /tmp/ccBtD8PR.s:384    .text:0000000000000244 .LVL41
     /tmp/ccBtD8PR.s:398    .text:0000000000000258 .LVL43
     /tmp/ccBtD8PR.s:403    .text:0000000000000264 .LVL44
     /tmp/ccBtD8PR.s:408    .text:0000000000000274 .LVL45
     /tmp/ccBtD8PR.s:413    .text:0000000000000280 .LVL46
     /tmp/ccBtD8PR.s:421    .text:0000000000000294 .LVL49
     /tmp/ccBtD8PR.s:426    .text:00000000000002a0 .LVL50
     /tmp/ccBtD8PR.s:431    .text:00000000000002b0 .LVL51
     /tmp/ccBtD8PR.s:438    .text:00000000000002c4 .LVL52
     /tmp/ccBtD8PR.s:443    .text:00000000000002d0 .LVL53
     /tmp/ccBtD8PR.s:448    .text:00000000000002e0 .LVL54
     /tmp/ccBtD8PR.s:3311   .debug_str:000000000000079e .LASF136
     /tmp/ccBtD8PR.s:9      .text:0000000000000000 .LFB30
     /tmp/ccBtD8PR.s:75     .text:0000000000000074 .LFE30
     /tmp/ccBtD8PR.s:2944   .debug_loc:000000000000014a .LLST0
     /tmp/ccBtD8PR.s:42     .text:000000000000003c .LVL2
     /tmp/ccBtD8PR.s:47     .text:000000000000004c .LVL3
     /tmp/ccBtD8PR.s:72     .text:0000000000000070 .LVL6
     /tmp/ccBtD8PR.s:3213   .debug_str:0000000000000437 .LASF113
     /tmp/ccBtD8PR.s:3083   .debug_str:0000000000000084 .LASF114
     /tmp/ccBtD8PR.s:195    .text:000000000000010c .LFB29
     /tmp/ccBtD8PR.s:296    .text:00000000000001b8 .LFE29
     /tmp/ccBtD8PR.s:210    .text:0000000000000120 .LBB8
     /tmp/ccBtD8PR.s:276    .text:0000000000000190 .LBE8
     /tmp/ccBtD8PR.s:2966   .debug_loc:00000000000001a9 .LLST4
     /tmp/ccBtD8PR.s:3049   .debug_ranges:0000000000000000 .Ldebug_ranges0
     /tmp/ccBtD8PR.s:2978   .debug_loc:00000000000001e0 .LLST5
     /tmp/ccBtD8PR.s:226    .text:0000000000000138 .LBB11
     /tmp/ccBtD8PR.s:241    .text:0000000000000150 .LBE11
     /tmp/ccBtD8PR.s:2990   .debug_loc:0000000000000217 .LLST6
     /tmp/ccBtD8PR.s:256    .text:000000000000016c .LVL26
     /tmp/ccBtD8PR.s:261    .text:0000000000000178 .LVL27
GAS LISTING /tmp/ccBtD8PR.s 			page 25


     /tmp/ccBtD8PR.s:266    .text:0000000000000188 .LVL28
     /tmp/ccBtD8PR.s:282    .text:00000000000001a4 .LVL30
     /tmp/ccBtD8PR.s:3209   .debug_str:0000000000000416 .LASF115
     /tmp/ccBtD8PR.s:3285   .debug_str:000000000000062e .LASF116
     /tmp/ccBtD8PR.s:89     .text:0000000000000074 .LFB28
     /tmp/ccBtD8PR.s:184    .text:000000000000010c .LFE28
     /tmp/ccBtD8PR.s:104    .text:0000000000000088 .LBB2
     /tmp/ccBtD8PR.s:170    .text:00000000000000f8 .LBE2
     /tmp/ccBtD8PR.s:3001   .debug_loc:000000000000024d .LLST1
     /tmp/ccBtD8PR.s:3013   .debug_loc:0000000000000284 .LLST2
     /tmp/ccBtD8PR.s:120    .text:00000000000000a0 .LBB5
     /tmp/ccBtD8PR.s:135    .text:00000000000000b8 .LBE5
     /tmp/ccBtD8PR.s:3025   .debug_loc:00000000000002bb .LLST3
     /tmp/ccBtD8PR.s:150    .text:00000000000000d4 .LVL14
     /tmp/ccBtD8PR.s:155    .text:00000000000000e0 .LVL15
     /tmp/ccBtD8PR.s:160    .text:00000000000000f0 .LVL16
     /tmp/ccBtD8PR.s:3329   .debug_str:000000000000080d .LASF117
     /tmp/ccBtD8PR.s:3251   .debug_str:000000000000055a .LASF119
     /tmp/ccBtD8PR.s:3253   .debug_str:0000000000000566 .LASF118
     /tmp/ccBtD8PR.s:3223   .debug_str:000000000000047f .LASF120
     /tmp/ccBtD8PR.s:508    .text:0000000000000320 .LVL59
     /tmp/ccBtD8PR.s:512    .text:0000000000000328 .LVL60
     /tmp/ccBtD8PR.s:531    .text:0000000000000358 .LVL64
     /tmp/ccBtD8PR.s:533    .text:000000000000035c .LVL65
     /tmp/ccBtD8PR.s:597    .text:00000000000003f0 .LVL77
     /tmp/ccBtD8PR.s:599    .text:00000000000003f4 .LVL78
     /tmp/ccBtD8PR.s:613    .text:0000000000000408 .LVL79
     /tmp/ccBtD8PR.s:561    .text:0000000000000390 .LVL69
     /tmp/ccBtD8PR.s:565    .text:0000000000000398 .LVL70
     /tmp/ccBtD8PR.s:616    .text:000000000000040c .LVL80
     /tmp/ccBtD8PR.s:332    .text:00000000000001d0 .LVL32
     /tmp/ccBtD8PR.s:336    .text:00000000000001d8 .LVL33
     /tmp/ccBtD8PR.s:355    .text:0000000000000208 .LVL37
     /tmp/ccBtD8PR.s:357    .text:000000000000020c .LVL38
     /tmp/ccBtD8PR.s:451    .text:00000000000002e4 .LVL55
     /tmp/ccBtD8PR.s:453    .text:00000000000002e8 .LVL56
     /tmp/ccBtD8PR.s:467    .text:00000000000002fc .LVL57
     /tmp/ccBtD8PR.s:392    .text:0000000000000248 .LVL42
     /tmp/ccBtD8PR.s:415    .text:0000000000000284 .LVL47
     /tmp/ccBtD8PR.s:419    .text:000000000000028c .LVL48
     /tmp/ccBtD8PR.s:470    .text:0000000000000300 .LVL58
     /tmp/ccBtD8PR.s:13     .text:0000000000000000 .LVL0
     /tmp/ccBtD8PR.s:36     .text:0000000000000030 .LVL1
     /tmp/ccBtD8PR.s:60     .text:000000000000005c .LVL4
     /tmp/ccBtD8PR.s:66     .text:0000000000000068 .LVL5
     /tmp/ccBtD8PR.s:209    .text:0000000000000120 .LVL19
     /tmp/ccBtD8PR.s:214    .text:0000000000000128 .LVL20
     /tmp/ccBtD8PR.s:291    .text:00000000000001b0 .LVL31
     /tmp/ccBtD8PR.s:246    .text:0000000000000154 .LVL25
     /tmp/ccBtD8PR.s:272    .text:0000000000000190 .LVL29
     /tmp/ccBtD8PR.s:220    .text:000000000000012c .LVL21
     /tmp/ccBtD8PR.s:230    .text:000000000000013c .LVL22
     /tmp/ccBtD8PR.s:239    .text:0000000000000150 .LVL24
     /tmp/ccBtD8PR.s:103    .text:0000000000000088 .LVL7
     /tmp/ccBtD8PR.s:108    .text:0000000000000090 .LVL8
     /tmp/ccBtD8PR.s:179    .text:0000000000000104 .LVL18
     /tmp/ccBtD8PR.s:140    .text:00000000000000bc .LVL13
GAS LISTING /tmp/ccBtD8PR.s 			page 26


     /tmp/ccBtD8PR.s:166    .text:00000000000000f8 .LVL17
     /tmp/ccBtD8PR.s:114    .text:0000000000000094 .LVL9
     /tmp/ccBtD8PR.s:124    .text:00000000000000a4 .LVL10
     /tmp/ccBtD8PR.s:133    .text:00000000000000b8 .LVL12
     /tmp/ccBtD8PR.s:631    .debug_info:0000000000000000 .Ldebug_info0
     /tmp/ccBtD8PR.s:111    .text:0000000000000090 .LBB4
     /tmp/ccBtD8PR.s:136    .text:00000000000000b8 .LBE4
     /tmp/ccBtD8PR.s:162    .text:00000000000000f0 .LBB6
     /tmp/ccBtD8PR.s:168    .text:00000000000000f8 .LBE6
     /tmp/ccBtD8PR.s:217    .text:0000000000000128 .LBB10
     /tmp/ccBtD8PR.s:242    .text:0000000000000150 .LBE10
     /tmp/ccBtD8PR.s:268    .text:0000000000000188 .LBB12
     /tmp/ccBtD8PR.s:274    .text:0000000000000190 .LBE12

UNDEFINED SYMBOLS
_ZN3TCB5yieldEv
_Z11printStringPKc
_Z12printIntegerm
newsem
_ZN4_sem6signalEv
_ZN4_sem4waitEv
