GAS LISTING /tmp/ccnaknX8.s 			page 1


   1              		.file	"workers.cpp"
   2              		.option pic
   3              		.option norelax
   4              		.text
   5              	.Ltext0:
   6              		.align	2
   8              	_ZL9fibonaccim:
   9              	.LFB24:
  10              		.file 1 "src/workers.cpp"
   1:src/workers.cpp **** //
   2:src/workers.cpp **** // Created by marko on 20.4.22..
   3:src/workers.cpp **** //
   4:src/workers.cpp **** 
   5:src/workers.cpp **** #include "../lib/hw.h"
   6:src/workers.cpp **** #include "../h/tcb.hpp"
   7:src/workers.cpp **** #include "../h/print.hpp"
   8:src/workers.cpp **** #include "../h/syscall_c.hpp"
   9:src/workers.cpp **** 
  10:src/workers.cpp **** extern thread_t handle1;
  11:src/workers.cpp **** 
  12:src/workers.cpp **** void workerBodyA()
  13:src/workers.cpp **** {
  14:src/workers.cpp ****     for (uint64 i = 0; i < 10; i++)
  15:src/workers.cpp ****     {
  16:src/workers.cpp ****         printString("A: i=");
  17:src/workers.cpp ****         printInteger(i);
  18:src/workers.cpp ****         printString("\n");
  19:src/workers.cpp ****         for (uint64 j = 0; j < 10000; j++)
  20:src/workers.cpp ****         {
  21:src/workers.cpp ****             for (uint64 k = 0; k < 30000; k++)
  22:src/workers.cpp ****             {
  23:src/workers.cpp ****                 // busy wait
  24:src/workers.cpp ****             }
  25:src/workers.cpp **** //            TCB::yield();
  26:src/workers.cpp ****         }
  27:src/workers.cpp ****     }
  28:src/workers.cpp **** }
  29:src/workers.cpp **** 
  30:src/workers.cpp **** void workerBodyB()
  31:src/workers.cpp **** {
  32:src/workers.cpp ****     for (uint64 i = 0; i < 16; i++)
  33:src/workers.cpp ****     {
  34:src/workers.cpp ****         printString("B: i=");
  35:src/workers.cpp ****         printInteger(i);
  36:src/workers.cpp ****         printString("\n");
  37:src/workers.cpp ****         for (uint64 j = 0; j < 10000; j++)
  38:src/workers.cpp ****         {
  39:src/workers.cpp ****             for (uint64 k = 0; k < 30000; k++)
  40:src/workers.cpp ****             {
  41:src/workers.cpp ****                 // busy wait
  42:src/workers.cpp ****             }
  43:src/workers.cpp **** //            TCB::yield();
  44:src/workers.cpp ****         }
  45:src/workers.cpp ****     }
  46:src/workers.cpp **** }
  47:src/workers.cpp **** 
  48:src/workers.cpp **** static uint64 fibonacci(uint64 n)
GAS LISTING /tmp/ccnaknX8.s 			page 2


  49:src/workers.cpp **** {
  11              		.loc 1 49 1
  12              		.cfi_startproc
  13              	.LVL0:
  14 0000 130101FE 		addi	sp,sp,-32
  15              		.cfi_def_cfa_offset 32
  16 0004 233C1100 		sd	ra,24(sp)
  17 0008 23388100 		sd	s0,16(sp)
  18 000c 23349100 		sd	s1,8(sp)
  19 0010 23302101 		sd	s2,0(sp)
  20              		.cfi_offset 1, -8
  21              		.cfi_offset 8, -16
  22              		.cfi_offset 9, -24
  23              		.cfi_offset 18, -32
  24 0014 13040102 		addi	s0,sp,32
  25              		.cfi_def_cfa 8, 0
  26 0018 93040500 		mv	s1,a0
  50:src/workers.cpp ****     if (n == 0 || n == 1) { return n; }
  27              		.loc 1 50 5
  28 001c 93071000 		li	a5,1
  29 0020 63F8A702 		bleu	a0,a5,.L1
  51:src/workers.cpp ****     if (n % 10 == 0) { TCB::yield(); }
  30              		.loc 1 51 5
  31              		.loc 1 51 11 is_stmt 0
  32 0024 9307A000 		li	a5,10
  33 0028 B377F502 		remu	a5,a0,a5
  34              		.loc 1 51 5
  35 002c 638E0702 		beqz	a5,.L6
  36              	.LVL1:
  37              	.L3:
  52:src/workers.cpp ****     return fibonacci(n - 1) + fibonacci(n - 2);
  38              		.loc 1 52 5 is_stmt 1
  39              		.loc 1 52 21 is_stmt 0
  40 0030 1385F4FF 		addi	a0,s1,-1
  41 0034 97000000 		call	_ZL9fibonaccim
  41      E7800000 
  42              	.LVL2:
  43 003c 13090500 		mv	s2,a0
  44              		.loc 1 52 40
  45 0040 1385E4FF 		addi	a0,s1,-2
  46 0044 97000000 		call	_ZL9fibonaccim
  46      E7800000 
  47              	.LVL3:
  48              		.loc 1 52 46
  49 004c 3305A900 		add	a0,s2,a0
  50              	.L1:
  53:src/workers.cpp **** }
  51              		.loc 1 53 1
  52 0050 83308101 		ld	ra,24(sp)
  53              		.cfi_remember_state
  54              		.cfi_restore 1
  55 0054 03340101 		ld	s0,16(sp)
  56              		.cfi_restore 8
  57              		.cfi_def_cfa 2, 32
  58 0058 83348100 		ld	s1,8(sp)
  59              		.cfi_restore 9
  60              	.LVL4:
GAS LISTING /tmp/ccnaknX8.s 			page 3


  61 005c 03390100 		ld	s2,0(sp)
  62              		.cfi_restore 18
  63 0060 13010102 		addi	sp,sp,32
  64              		.cfi_def_cfa_offset 0
  65 0064 67800000 		jr	ra
  66              	.LVL5:
  67              	.L6:
  68              		.cfi_restore_state
  51:src/workers.cpp ****     if (n % 10 == 0) { TCB::yield(); }
  69              		.loc 1 51 24 is_stmt 1 discriminator 1
  51:src/workers.cpp ****     if (n % 10 == 0) { TCB::yield(); }
  70              		.loc 1 51 34 is_stmt 0 discriminator 1
  71 0068 97000000 		call	_ZN3TCB5yieldEv@plt
  71      E7800000 
  72              	.LVL6:
  73 0070 6FF01FFC 		j	.L3
  74              		.cfi_endproc
  75              	.LFE24:
  77              		.section	.rodata.str1.8,"aMS",@progbits,1
  78              		.align	3
  79              	.LC0:
  80 0000 413A2069 		.string	"A: i="
  80      3D00
  81 0006 0000     		.align	3
  82              	.LC1:
  83 0008 0A00     		.string	"\n"
  84              		.text
  85              		.align	2
  86              		.globl	_Z11workerBodyAv
  88              	_Z11workerBodyAv:
  89              	.LFB22:
  13:src/workers.cpp ****     for (uint64 i = 0; i < 10; i++)
  90              		.loc 1 13 1 is_stmt 1
  91              		.cfi_startproc
  92 0074 130101FE 		addi	sp,sp,-32
  93              		.cfi_def_cfa_offset 32
  94 0078 233C1100 		sd	ra,24(sp)
  95 007c 23388100 		sd	s0,16(sp)
  96 0080 23349100 		sd	s1,8(sp)
  97              		.cfi_offset 1, -8
  98              		.cfi_offset 8, -16
  99              		.cfi_offset 9, -24
 100 0084 13040102 		addi	s0,sp,32
 101              		.cfi_def_cfa 8, 0
  14:src/workers.cpp ****     {
 102              		.loc 1 14 5
 103              	.LVL7:
 104              	.LBB2:
  14:src/workers.cpp ****     {
 105              		.loc 1 14 17 is_stmt 0
 106 0088 93040000 		li	s1,0
 107 008c 6F000003 		j	.L13
 108              	.LVL8:
 109              	.L10:
 110              	.LBB3:
 111              	.LBB4:
  19:src/workers.cpp ****         {
GAS LISTING /tmp/ccnaknX8.s 			page 4


 112              		.loc 1 19 9 is_stmt 1 discriminator 2
 113 0090 93861600 		addi	a3,a3,1
 114              	.LVL9:
 115              	.L12:
  19:src/workers.cpp ****         {
 116              		.loc 1 19 30 discriminator 1
 117 0094 B7270000 		li	a5,8192
 118 0098 9387F770 		addi	a5,a5,1807
 119 009c 63EED700 		bgtu	a3,a5,.L9
 120              	.LBB5:
  21:src/workers.cpp ****             {
 121              		.loc 1 21 25 is_stmt 0
 122 00a0 13070000 		li	a4,0
 123              	.L11:
 124              	.LVL10:
  21:src/workers.cpp ****             {
 125              		.loc 1 21 34 is_stmt 1 discriminator 3
 126 00a4 B7770000 		li	a5,28672
 127 00a8 9387F752 		addi	a5,a5,1327
 128 00ac E3E2E7FE 		bgtu	a4,a5,.L10
  21:src/workers.cpp ****             {
 129              		.loc 1 21 13 discriminator 2
 130 00b0 13071700 		addi	a4,a4,1
 131              	.LVL11:
 132 00b4 6FF01FFF 		j	.L11
 133              	.LVL12:
 134              	.L9:
 135              	.LBE5:
 136              	.LBE4:
 137              	.LBE3:
  14:src/workers.cpp ****     {
 138              		.loc 1 14 5 discriminator 2
 139 00b8 93841400 		addi	s1,s1,1
 140              	.LVL13:
 141              	.L13:
  14:src/workers.cpp ****     {
 142              		.loc 1 14 26 discriminator 1
 143 00bc 93079000 		li	a5,9
 144 00c0 63EC9702 		bgtu	s1,a5,.L7
 145              	.LBB7:
  16:src/workers.cpp ****         printInteger(i);
 146              		.loc 1 16 9
  16:src/workers.cpp ****         printInteger(i);
 147              		.loc 1 16 20 is_stmt 0
 148 00c4 17050000 		lla	a0,.LC0
 148      13050500 
 149 00cc 97000000 		call	_Z11printStringPKc@plt
 149      E7800000 
 150              	.LVL14:
  17:src/workers.cpp ****         printString("\n");
 151              		.loc 1 17 9 is_stmt 1
  17:src/workers.cpp ****         printString("\n");
 152              		.loc 1 17 21 is_stmt 0
 153 00d4 13850400 		mv	a0,s1
 154 00d8 97000000 		call	_Z12printIntegerm@plt
 154      E7800000 
 155              	.LVL15:
GAS LISTING /tmp/ccnaknX8.s 			page 5


  18:src/workers.cpp ****         for (uint64 j = 0; j < 10000; j++)
 156              		.loc 1 18 9 is_stmt 1
  18:src/workers.cpp ****         for (uint64 j = 0; j < 10000; j++)
 157              		.loc 1 18 20 is_stmt 0
 158 00e0 17050000 		lla	a0,.LC1
 158      13050500 
 159 00e8 97000000 		call	_Z11printStringPKc@plt
 159      E7800000 
 160              	.LVL16:
  19:src/workers.cpp ****         {
 161              		.loc 1 19 9 is_stmt 1
 162              	.LBB6:
  19:src/workers.cpp ****         {
 163              		.loc 1 19 21 is_stmt 0
 164 00f0 93060000 		li	a3,0
 165 00f4 6FF01FFA 		j	.L12
 166              	.LVL17:
 167              	.L7:
 168              	.LBE6:
 169              	.LBE7:
 170              	.LBE2:
  28:src/workers.cpp **** 
 171              		.loc 1 28 1
 172 00f8 83308101 		ld	ra,24(sp)
 173              		.cfi_restore 1
 174 00fc 03340101 		ld	s0,16(sp)
 175              		.cfi_restore 8
 176              		.cfi_def_cfa 2, 32
 177 0100 83348100 		ld	s1,8(sp)
 178              		.cfi_restore 9
 179              	.LVL18:
 180 0104 13010102 		addi	sp,sp,32
 181              		.cfi_def_cfa_offset 0
 182 0108 67800000 		jr	ra
 183              		.cfi_endproc
 184              	.LFE22:
 186              		.section	.rodata.str1.8
 187 000a 00000000 		.align	3
 187      0000
 188              	.LC2:
 189 0010 423A2069 		.string	"B: i="
 189      3D00
 190              		.text
 191              		.align	2
 192              		.globl	_Z11workerBodyBv
 194              	_Z11workerBodyBv:
 195              	.LFB23:
  31:src/workers.cpp ****     for (uint64 i = 0; i < 16; i++)
 196              		.loc 1 31 1 is_stmt 1
 197              		.cfi_startproc
 198 010c 130101FE 		addi	sp,sp,-32
 199              		.cfi_def_cfa_offset 32
 200 0110 233C1100 		sd	ra,24(sp)
 201 0114 23388100 		sd	s0,16(sp)
 202 0118 23349100 		sd	s1,8(sp)
 203              		.cfi_offset 1, -8
 204              		.cfi_offset 8, -16
GAS LISTING /tmp/ccnaknX8.s 			page 6


 205              		.cfi_offset 9, -24
 206 011c 13040102 		addi	s0,sp,32
 207              		.cfi_def_cfa 8, 0
  32:src/workers.cpp ****     {
 208              		.loc 1 32 5
 209              	.LVL19:
 210              	.LBB8:
  32:src/workers.cpp ****     {
 211              		.loc 1 32 17 is_stmt 0
 212 0120 93040000 		li	s1,0
 213 0124 6F000003 		j	.L21
 214              	.LVL20:
 215              	.L18:
 216              	.LBB9:
 217              	.LBB10:
  37:src/workers.cpp ****         {
 218              		.loc 1 37 9 is_stmt 1 discriminator 2
 219 0128 93861600 		addi	a3,a3,1
 220              	.LVL21:
 221              	.L20:
  37:src/workers.cpp ****         {
 222              		.loc 1 37 30 discriminator 1
 223 012c B7270000 		li	a5,8192
 224 0130 9387F770 		addi	a5,a5,1807
 225 0134 63EED700 		bgtu	a3,a5,.L17
 226              	.LBB11:
  39:src/workers.cpp ****             {
 227              		.loc 1 39 25 is_stmt 0
 228 0138 13070000 		li	a4,0
 229              	.L19:
 230              	.LVL22:
  39:src/workers.cpp ****             {
 231              		.loc 1 39 34 is_stmt 1 discriminator 3
 232 013c B7770000 		li	a5,28672
 233 0140 9387F752 		addi	a5,a5,1327
 234 0144 E3E2E7FE 		bgtu	a4,a5,.L18
  39:src/workers.cpp ****             {
 235              		.loc 1 39 13 discriminator 2
 236 0148 13071700 		addi	a4,a4,1
 237              	.LVL23:
 238 014c 6FF01FFF 		j	.L19
 239              	.LVL24:
 240              	.L17:
 241              	.LBE11:
 242              	.LBE10:
 243              	.LBE9:
  32:src/workers.cpp ****     {
 244              		.loc 1 32 5 discriminator 2
 245 0150 93841400 		addi	s1,s1,1
 246              	.LVL25:
 247              	.L21:
  32:src/workers.cpp ****     {
 248              		.loc 1 32 26 discriminator 1
 249 0154 9307F000 		li	a5,15
 250 0158 63EC9702 		bgtu	s1,a5,.L15
 251              	.LBB13:
  34:src/workers.cpp ****         printInteger(i);
GAS LISTING /tmp/ccnaknX8.s 			page 7


 252              		.loc 1 34 9
  34:src/workers.cpp ****         printInteger(i);
 253              		.loc 1 34 20 is_stmt 0
 254 015c 17050000 		lla	a0,.LC2
 254      13050500 
 255 0164 97000000 		call	_Z11printStringPKc@plt
 255      E7800000 
 256              	.LVL26:
  35:src/workers.cpp ****         printString("\n");
 257              		.loc 1 35 9 is_stmt 1
  35:src/workers.cpp ****         printString("\n");
 258              		.loc 1 35 21 is_stmt 0
 259 016c 13850400 		mv	a0,s1
 260 0170 97000000 		call	_Z12printIntegerm@plt
 260      E7800000 
 261              	.LVL27:
  36:src/workers.cpp ****         for (uint64 j = 0; j < 10000; j++)
 262              		.loc 1 36 9 is_stmt 1
  36:src/workers.cpp ****         for (uint64 j = 0; j < 10000; j++)
 263              		.loc 1 36 20 is_stmt 0
 264 0178 17050000 		lla	a0,.LC1
 264      13050500 
 265 0180 97000000 		call	_Z11printStringPKc@plt
 265      E7800000 
 266              	.LVL28:
  37:src/workers.cpp ****         {
 267              		.loc 1 37 9 is_stmt 1
 268              	.LBB12:
  37:src/workers.cpp ****         {
 269              		.loc 1 37 21 is_stmt 0
 270 0188 93060000 		li	a3,0
 271 018c 6FF01FFA 		j	.L20
 272              	.LVL29:
 273              	.L15:
 274              	.LBE12:
 275              	.LBE13:
 276              	.LBE8:
  46:src/workers.cpp **** 
 277              		.loc 1 46 1
 278 0190 83308101 		ld	ra,24(sp)
 279              		.cfi_restore 1
 280 0194 03340101 		ld	s0,16(sp)
 281              		.cfi_restore 8
 282              		.cfi_def_cfa 2, 32
 283 0198 83348100 		ld	s1,8(sp)
 284              		.cfi_restore 9
 285              	.LVL30:
 286 019c 13010102 		addi	sp,sp,32
 287              		.cfi_def_cfa_offset 0
 288 01a0 67800000 		jr	ra
 289              		.cfi_endproc
 290              	.LFE23:
 292              		.section	.rodata.str1.8
 293 0016 0000     		.align	3
 294              	.LC3:
 295 0018 433A2069 		.string	"C: i="
 295      3D00
GAS LISTING /tmp/ccnaknX8.s 			page 8


 296 001e 0000     		.align	3
 297              	.LC4:
 298 0020 433A2079 		.string	"C: yield\n"
 298      69656C64 
 298      0A00
 299 002a 00000000 		.align	3
 299      0000
 300              	.LC5:
 301 0030 433A2074 		.string	"C: t1="
 301      313D00
 302 0037 00       		.align	3
 303              	.LC6:
 304 0038 433A2066 		.string	"C: fibonaci="
 304      69626F6E 
 304      6163693D 
 304      00
 305              		.text
 306              		.align	2
 307              		.globl	_Z11workerBodyCv
 309              	_Z11workerBodyCv:
 310              	.LFB25:
  54:src/workers.cpp **** 
  55:src/workers.cpp **** void workerBodyC()
  56:src/workers.cpp **** {
 311              		.loc 1 56 1 is_stmt 1
 312              		.cfi_startproc
 313 01a4 130101FE 		addi	sp,sp,-32
 314              		.cfi_def_cfa_offset 32
 315 01a8 233C1100 		sd	ra,24(sp)
 316 01ac 23388100 		sd	s0,16(sp)
 317 01b0 23349100 		sd	s1,8(sp)
 318 01b4 23302101 		sd	s2,0(sp)
 319              		.cfi_offset 1, -8
 320              		.cfi_offset 8, -16
 321              		.cfi_offset 9, -24
 322              		.cfi_offset 18, -32
 323 01b8 13040102 		addi	s0,sp,32
 324              		.cfi_def_cfa 8, 0
  57:src/workers.cpp ****     uint8 i = 0;
 325              		.loc 1 57 5
 326              	.LVL31:
 327              		.loc 1 57 11 is_stmt 0
 328 01bc 93040000 		li	s1,0
 329 01c0 6F008003 		j	.L25
 330              	.LVL32:
 331              	.L29:
  58:src/workers.cpp ****     for (; i < 3; i++)
  59:src/workers.cpp ****     {
  60:src/workers.cpp ****         printString("C: i=");
 332              		.loc 1 60 9 is_stmt 1 discriminator 1
 333              		.loc 1 60 20 is_stmt 0 discriminator 1
 334 01c4 17050000 		lla	a0,.LC3
 334      13050500 
 335 01cc 97000000 		call	_Z11printStringPKc@plt
 335      E7800000 
 336              	.LVL33:
  61:src/workers.cpp ****         printInteger(i);
GAS LISTING /tmp/ccnaknX8.s 			page 9


 337              		.loc 1 61 9 is_stmt 1 discriminator 1
 338              		.loc 1 61 21 is_stmt 0 discriminator 1
 339 01d4 13850400 		mv	a0,s1
 340 01d8 97000000 		call	_Z12printIntegerm@plt
 340      E7800000 
 341              	.LVL34:
  62:src/workers.cpp ****         printString("\n");
 342              		.loc 1 62 9 is_stmt 1 discriminator 1
 343              		.loc 1 62 20 is_stmt 0 discriminator 1
 344 01e0 17050000 		lla	a0,.LC1
 344      13050500 
 345 01e8 97000000 		call	_Z11printStringPKc@plt
 345      E7800000 
 346              	.LVL35:
  58:src/workers.cpp ****     for (; i < 3; i++)
 347              		.loc 1 58 5 is_stmt 1 discriminator 1
 348 01f0 9B841400 		addiw	s1,s1,1
 349              	.LVL36:
 350 01f4 93F4F40F 		andi	s1,s1,0xff
 351              	.LVL37:
 352              	.L25:
  58:src/workers.cpp ****     for (; i < 3; i++)
 353              		.loc 1 58 5 discriminator 2
  58:src/workers.cpp ****     for (; i < 3; i++)
 354              		.loc 1 58 14 discriminator 2
 355 01f8 93072000 		li	a5,2
 356 01fc E3F497FC 		bleu	s1,a5,.L29
  63:src/workers.cpp ****     }
  64:src/workers.cpp **** 
  65:src/workers.cpp ****     thread_join(handle1);
 357              		.loc 1 65 5
 358              		.loc 1 65 16 is_stmt 0
 359 0200 97070000 		la	a5,handle1
 359      83B70700 
 360 0208 03B50700 		ld	a0,0(a5)
 361 020c 97000000 		call	_Z11thread_joinP3TCB@plt
 361      E7800000 
 362              	.LVL38:
  66:src/workers.cpp ****     printString("C: yield\n");
 363              		.loc 1 66 5 is_stmt 1
 364              		.loc 1 66 16 is_stmt 0
 365 0214 17050000 		lla	a0,.LC4
 365      13050500 
 366 021c 97000000 		call	_Z11printStringPKc@plt
 366      E7800000 
 367              	.LVL39:
  67:src/workers.cpp ****     __asm__ ("li t1, 7");
 368              		.loc 1 67 5 is_stmt 1
 369              		.loc 1 67 25 is_stmt 0
 370              	#APP
 371              	# 67 "src/workers.cpp" 1
  68              	    TCB::yield();
 372              		li t1, 7
 373              	# 0 "" 2
 374              		.loc 1 68 5 is_stmt 1
 375              		.loc 1 68 15 is_stmt 0
 376              	#NO_APP
GAS LISTING /tmp/ccnaknX8.s 			page 10


 377 0228 97000000 		call	_ZN3TCB5yieldEv@plt
 377      E7800000 
 378              	.LVL40:
  69:src/workers.cpp **** 
  70:src/workers.cpp ****     uint64 t1 = 0;
 379              		.loc 1 70 5 is_stmt 1
  71:src/workers.cpp ****     __asm__ ("mv %[t1], t1" : [t1] "=r"(t1));
 380              		.loc 1 71 5
 381              		.loc 1 71 45 is_stmt 0
 382              	#APP
 383              	# 71 "src/workers.cpp" 1
  72              	
 384              		mv s2, t1
 385              	# 0 "" 2
 386              	.LVL41:
  73:src/workers.cpp ****     printString("C: t1=");
 387              		.loc 1 73 5 is_stmt 1
 388              		.loc 1 73 16 is_stmt 0
 389              	#NO_APP
 390 0234 17050000 		lla	a0,.LC5
 390      13050500 
 391 023c 97000000 		call	_Z11printStringPKc@plt
 391      E7800000 
 392              	.LVL42:
  74:src/workers.cpp ****     printInteger(t1);
 393              		.loc 1 74 5 is_stmt 1
 394              		.loc 1 74 17 is_stmt 0
 395 0244 13050900 		mv	a0,s2
 396 0248 97000000 		call	_Z12printIntegerm@plt
 396      E7800000 
 397              	.LVL43:
  75:src/workers.cpp ****     printString("\n");
 398              		.loc 1 75 5 is_stmt 1
 399              		.loc 1 75 16 is_stmt 0
 400 0250 17050000 		lla	a0,.LC1
 400      13050500 
 401 0258 97000000 		call	_Z11printStringPKc@plt
 401      E7800000 
 402              	.LVL44:
  76:src/workers.cpp **** 
  77:src/workers.cpp ****     uint64 result = fibonacci(12);
 403              		.loc 1 77 5 is_stmt 1
 404              		.loc 1 77 30 is_stmt 0
 405 0260 1305C000 		li	a0,12
 406 0264 97000000 		call	_ZL9fibonaccim
 406      E7800000 
 407              	.LVL45:
 408 026c 13090500 		mv	s2,a0
 409              	.LVL46:
  78:src/workers.cpp ****     printString("C: fibonaci=");
 410              		.loc 1 78 5 is_stmt 1
 411              		.loc 1 78 16 is_stmt 0
 412 0270 17050000 		lla	a0,.LC6
 412      13050500 
 413              	.LVL47:
 414 0278 97000000 		call	_Z11printStringPKc@plt
 414      E7800000 
GAS LISTING /tmp/ccnaknX8.s 			page 11


 415              	.LVL48:
  79:src/workers.cpp ****     printInteger(result);
 416              		.loc 1 79 5 is_stmt 1
 417              		.loc 1 79 17 is_stmt 0
 418 0280 13050900 		mv	a0,s2
 419 0284 97000000 		call	_Z12printIntegerm@plt
 419      E7800000 
 420              	.LVL49:
  80:src/workers.cpp ****     printString("\n");
 421              		.loc 1 80 5 is_stmt 1
 422              		.loc 1 80 16 is_stmt 0
 423 028c 17050000 		lla	a0,.LC1
 423      13050500 
 424 0294 97000000 		call	_Z11printStringPKc@plt
 424      E7800000 
 425              	.LVL50:
 426 029c 6F008003 		j	.L27
 427              	.L30:
  81:src/workers.cpp **** 
  82:src/workers.cpp ****     for (; i < 6; i++)
  83:src/workers.cpp ****     {
  84:src/workers.cpp ****         printString("C: i=");
 428              		.loc 1 84 9 is_stmt 1 discriminator 1
 429              		.loc 1 84 20 is_stmt 0 discriminator 1
 430 02a0 17050000 		lla	a0,.LC3
 430      13050500 
 431 02a8 97000000 		call	_Z11printStringPKc@plt
 431      E7800000 
 432              	.LVL51:
  85:src/workers.cpp ****         printInteger(i);
 433              		.loc 1 85 9 is_stmt 1 discriminator 1
 434              		.loc 1 85 21 is_stmt 0 discriminator 1
 435 02b0 13850400 		mv	a0,s1
 436 02b4 97000000 		call	_Z12printIntegerm@plt
 436      E7800000 
 437              	.LVL52:
  86:src/workers.cpp ****         printString("\n");
 438              		.loc 1 86 9 is_stmt 1 discriminator 1
 439              		.loc 1 86 20 is_stmt 0 discriminator 1
 440 02bc 17050000 		lla	a0,.LC1
 440      13050500 
 441 02c4 97000000 		call	_Z11printStringPKc@plt
 441      E7800000 
 442              	.LVL53:
  82:src/workers.cpp ****     {
 443              		.loc 1 82 5 is_stmt 1 discriminator 1
 444 02cc 9B841400 		addiw	s1,s1,1
 445              	.LVL54:
 446 02d0 93F4F40F 		andi	s1,s1,0xff
 447              	.LVL55:
 448              	.L27:
  82:src/workers.cpp ****     {
 449              		.loc 1 82 5 discriminator 2
  82:src/workers.cpp ****     {
 450              		.loc 1 82 14 discriminator 2
 451 02d4 93075000 		li	a5,5
 452 02d8 E3F497FC 		bleu	s1,a5,.L30
GAS LISTING /tmp/ccnaknX8.s 			page 12


  87:src/workers.cpp ****     }
  88:src/workers.cpp **** //    TCB::yield();
  89:src/workers.cpp **** }
 453              		.loc 1 89 1 is_stmt 0
 454 02dc 83308101 		ld	ra,24(sp)
 455              		.cfi_restore 1
 456 02e0 03340101 		ld	s0,16(sp)
 457              		.cfi_restore 8
 458              		.cfi_def_cfa 2, 32
 459 02e4 83348100 		ld	s1,8(sp)
 460              		.cfi_restore 9
 461              	.LVL56:
 462 02e8 03390100 		ld	s2,0(sp)
 463              		.cfi_restore 18
 464              	.LVL57:
 465 02ec 13010102 		addi	sp,sp,32
 466              		.cfi_def_cfa_offset 0
 467 02f0 67800000 		jr	ra
 468              		.cfi_endproc
 469              	.LFE25:
 471              		.section	.rodata.str1.8
 472 0045 000000   		.align	3
 473              	.LC7:
 474 0048 443A2069 		.string	"D: i="
 474      3D00
 475 004e 0000     		.align	3
 476              	.LC8:
 477 0050 443A2079 		.string	"D: yield\n"
 477      69656C64 
 477      0A00
 478 005a 00000000 		.align	3
 478      0000
 479              	.LC9:
 480 0060 443A2066 		.string	"D: fibonaci="
 480      69626F6E 
 480      6163693D 
 480      00
 481              		.text
 482              		.align	2
 483              		.globl	_Z11workerBodyDv
 485              	_Z11workerBodyDv:
 486              	.LFB26:
  90:src/workers.cpp **** 
  91:src/workers.cpp **** void workerBodyD()
  92:src/workers.cpp **** {
 487              		.loc 1 92 1 is_stmt 1
 488              		.cfi_startproc
 489 02f4 130101FE 		addi	sp,sp,-32
 490              		.cfi_def_cfa_offset 32
 491 02f8 233C1100 		sd	ra,24(sp)
 492 02fc 23388100 		sd	s0,16(sp)
 493 0300 23349100 		sd	s1,8(sp)
 494 0304 23302101 		sd	s2,0(sp)
 495              		.cfi_offset 1, -8
 496              		.cfi_offset 8, -16
 497              		.cfi_offset 9, -24
 498              		.cfi_offset 18, -32
GAS LISTING /tmp/ccnaknX8.s 			page 13


 499 0308 13040102 		addi	s0,sp,32
 500              		.cfi_def_cfa 8, 0
  93:src/workers.cpp ****     uint8 i = 10;
 501              		.loc 1 93 5
 502              	.LVL58:
 503              		.loc 1 93 11 is_stmt 0
 504 030c 9304A000 		li	s1,10
 505 0310 6F008003 		j	.L33
 506              	.LVL59:
 507              	.L37:
  94:src/workers.cpp ****     for (; i < 13; i++)
  95:src/workers.cpp ****     {
  96:src/workers.cpp ****         printString("D: i=");
 508              		.loc 1 96 9 is_stmt 1 discriminator 1
 509              		.loc 1 96 20 is_stmt 0 discriminator 1
 510 0314 17050000 		lla	a0,.LC7
 510      13050500 
 511 031c 97000000 		call	_Z11printStringPKc@plt
 511      E7800000 
 512              	.LVL60:
  97:src/workers.cpp ****         printInteger(i);
 513              		.loc 1 97 9 is_stmt 1 discriminator 1
 514              		.loc 1 97 21 is_stmt 0 discriminator 1
 515 0324 13850400 		mv	a0,s1
 516 0328 97000000 		call	_Z12printIntegerm@plt
 516      E7800000 
 517              	.LVL61:
  98:src/workers.cpp ****         printString("\n");
 518              		.loc 1 98 9 is_stmt 1 discriminator 1
 519              		.loc 1 98 20 is_stmt 0 discriminator 1
 520 0330 17050000 		lla	a0,.LC1
 520      13050500 
 521 0338 97000000 		call	_Z11printStringPKc@plt
 521      E7800000 
 522              	.LVL62:
  94:src/workers.cpp ****     for (; i < 13; i++)
 523              		.loc 1 94 5 is_stmt 1 discriminator 1
 524 0340 9B841400 		addiw	s1,s1,1
 525              	.LVL63:
 526 0344 93F4F40F 		andi	s1,s1,0xff
 527              	.LVL64:
 528              	.L33:
  94:src/workers.cpp ****     for (; i < 13; i++)
 529              		.loc 1 94 5 discriminator 2
  94:src/workers.cpp ****     for (; i < 13; i++)
 530              		.loc 1 94 14 discriminator 2
 531 0348 9307C000 		li	a5,12
 532 034c E3F497FC 		bleu	s1,a5,.L37
  99:src/workers.cpp ****     }
 100:src/workers.cpp **** 
 101:src/workers.cpp ****     printString("D: yield\n");
 533              		.loc 1 101 5
 534              		.loc 1 101 16 is_stmt 0
 535 0350 17050000 		lla	a0,.LC8
 535      13050500 
 536 0358 97000000 		call	_Z11printStringPKc@plt
 536      E7800000 
GAS LISTING /tmp/ccnaknX8.s 			page 14


 537              	.LVL65:
 102:src/workers.cpp ****     __asm__ ("li t1, 5");
 538              		.loc 1 102 5 is_stmt 1
 539              		.loc 1 102 25 is_stmt 0
 540              	#APP
 541              	# 102 "src/workers.cpp" 1
 103              	    TCB::yield();
 542              		li t1, 5
 543              	# 0 "" 2
 544              		.loc 1 103 5 is_stmt 1
 545              		.loc 1 103 15 is_stmt 0
 546              	#NO_APP
 547 0364 97000000 		call	_ZN3TCB5yieldEv@plt
 547      E7800000 
 548              	.LVL66:
 104:src/workers.cpp **** 
 105:src/workers.cpp ****     uint64 result = fibonacci(16);
 549              		.loc 1 105 5 is_stmt 1
 550              		.loc 1 105 30 is_stmt 0
 551 036c 13050001 		li	a0,16
 552 0370 97000000 		call	_ZL9fibonaccim
 552      E7800000 
 553              	.LVL67:
 554 0378 13090500 		mv	s2,a0
 555              	.LVL68:
 106:src/workers.cpp ****     printString("D: fibonaci=");
 556              		.loc 1 106 5 is_stmt 1
 557              		.loc 1 106 16 is_stmt 0
 558 037c 17050000 		lla	a0,.LC9
 558      13050500 
 559              	.LVL69:
 560 0384 97000000 		call	_Z11printStringPKc@plt
 560      E7800000 
 561              	.LVL70:
 107:src/workers.cpp ****     printInteger(result);
 562              		.loc 1 107 5 is_stmt 1
 563              		.loc 1 107 17 is_stmt 0
 564 038c 13050900 		mv	a0,s2
 565 0390 97000000 		call	_Z12printIntegerm@plt
 565      E7800000 
 566              	.LVL71:
 108:src/workers.cpp ****     printString("\n");
 567              		.loc 1 108 5 is_stmt 1
 568              		.loc 1 108 16 is_stmt 0
 569 0398 17050000 		lla	a0,.LC1
 569      13050500 
 570 03a0 97000000 		call	_Z11printStringPKc@plt
 570      E7800000 
 571              	.LVL72:
 572 03a8 6F008003 		j	.L35
 573              	.L38:
 109:src/workers.cpp **** 
 110:src/workers.cpp ****     for (; i < 16; i++)
 111:src/workers.cpp ****     {
 112:src/workers.cpp ****         printString("D: i=");
 574              		.loc 1 112 9 is_stmt 1 discriminator 1
 575              		.loc 1 112 20 is_stmt 0 discriminator 1
GAS LISTING /tmp/ccnaknX8.s 			page 15


 576 03ac 17050000 		lla	a0,.LC7
 576      13050500 
 577 03b4 97000000 		call	_Z11printStringPKc@plt
 577      E7800000 
 578              	.LVL73:
 113:src/workers.cpp ****         printInteger(i);
 579              		.loc 1 113 9 is_stmt 1 discriminator 1
 580              		.loc 1 113 21 is_stmt 0 discriminator 1
 581 03bc 13850400 		mv	a0,s1
 582 03c0 97000000 		call	_Z12printIntegerm@plt
 582      E7800000 
 583              	.LVL74:
 114:src/workers.cpp ****         printString("\n");
 584              		.loc 1 114 9 is_stmt 1 discriminator 1
 585              		.loc 1 114 20 is_stmt 0 discriminator 1
 586 03c8 17050000 		lla	a0,.LC1
 586      13050500 
 587 03d0 97000000 		call	_Z11printStringPKc@plt
 587      E7800000 
 588              	.LVL75:
 110:src/workers.cpp ****     {
 589              		.loc 1 110 5 is_stmt 1 discriminator 1
 590 03d8 9B841400 		addiw	s1,s1,1
 591              	.LVL76:
 592 03dc 93F4F40F 		andi	s1,s1,0xff
 593              	.LVL77:
 594              	.L35:
 110:src/workers.cpp ****     {
 595              		.loc 1 110 5 discriminator 2
 110:src/workers.cpp ****     {
 596              		.loc 1 110 14 discriminator 2
 597 03e0 9307F000 		li	a5,15
 598 03e4 E3F497FC 		bleu	s1,a5,.L38
 115:src/workers.cpp ****     }
 116:src/workers.cpp **** //    TCB::yield();
 117:src/workers.cpp **** }...
 599              		.loc 1 117 1 is_stmt 0
 600 03e8 83308101 		ld	ra,24(sp)
 601              		.cfi_restore 1
 602 03ec 03340101 		ld	s0,16(sp)
 603              		.cfi_restore 8
 604              		.cfi_def_cfa 2, 32
 605 03f0 83348100 		ld	s1,8(sp)
 606              		.cfi_restore 9
 607              	.LVL78:
 608 03f4 03390100 		ld	s2,0(sp)
 609              		.cfi_restore 18
 610              	.LVL79:
 611 03f8 13010102 		addi	sp,sp,32
 612              		.cfi_def_cfa_offset 0
 613 03fc 67800000 		jr	ra
 614              		.cfi_endproc
 615              	.LFE26:
 617              	.Letext0:
 618              		.file 2 "src/../lib/hw.h"
 619              		.file 3 "src/../h/list.hpp"
 620              		.file 4 "src/../h/tcb.hpp"
GAS LISTING /tmp/ccnaknX8.s 			page 16


 621              		.file 5 "src/../h/syscall_c.hpp"
 622              		.file 6 "src/../h/print.hpp"
GAS LISTING /tmp/ccnaknX8.s 			page 17


DEFINED SYMBOLS
                            *ABS*:0000000000000000 workers.cpp
     /tmp/ccnaknX8.s:8      .text:0000000000000000 _ZL9fibonaccim
     /tmp/ccnaknX8.s:12     .text:0000000000000000 .L0 
     /tmp/ccnaknX8.s:14     .text:0000000000000000 .L0 
     /tmp/ccnaknX8.s:15     .text:0000000000000004 .L0 
     /tmp/ccnaknX8.s:20     .text:0000000000000014 .L0 
     /tmp/ccnaknX8.s:21     .text:0000000000000014 .L0 
     /tmp/ccnaknX8.s:22     .text:0000000000000014 .L0 
     /tmp/ccnaknX8.s:23     .text:0000000000000014 .L0 
     /tmp/ccnaknX8.s:25     .text:0000000000000018 .L0 
     /tmp/ccnaknX8.s:28     .text:000000000000001c .L0 
     /tmp/ccnaknX8.s:31     .text:0000000000000024 .L0 
     /tmp/ccnaknX8.s:32     .text:0000000000000024 .L0 
     /tmp/ccnaknX8.s:35     .text:000000000000002c .L0 
     /tmp/ccnaknX8.s:39     .text:0000000000000030 .L0 
     /tmp/ccnaknX8.s:40     .text:0000000000000030 .L0 
     /tmp/ccnaknX8.s:45     .text:0000000000000040 .L0 
     /tmp/ccnaknX8.s:49     .text:000000000000004c .L0 
     /tmp/ccnaknX8.s:52     .text:0000000000000050 .L0 
     /tmp/ccnaknX8.s:53     .text:0000000000000054 .L0 
     /tmp/ccnaknX8.s:54     .text:0000000000000054 .L0 
     /tmp/ccnaknX8.s:56     .text:0000000000000058 .L0 
     /tmp/ccnaknX8.s:57     .text:0000000000000058 .L0 
     /tmp/ccnaknX8.s:59     .text:000000000000005c .L0 
     /tmp/ccnaknX8.s:62     .text:0000000000000060 .L0 
     /tmp/ccnaknX8.s:64     .text:0000000000000064 .L0 
     /tmp/ccnaknX8.s:68     .text:0000000000000068 .L0 
     /tmp/ccnaknX8.s:70     .text:0000000000000068 .L0 
     /tmp/ccnaknX8.s:71     .text:0000000000000068 .L0 
     /tmp/ccnaknX8.s:74     .text:0000000000000074 .L0 
     /tmp/ccnaknX8.s:88     .text:0000000000000074 _Z11workerBodyAv
     /tmp/ccnaknX8.s:91     .text:0000000000000074 .L0 
     /tmp/ccnaknX8.s:92     .text:0000000000000074 .L0 
     /tmp/ccnaknX8.s:93     .text:0000000000000078 .L0 
     /tmp/ccnaknX8.s:97     .text:0000000000000084 .L0 
     /tmp/ccnaknX8.s:98     .text:0000000000000084 .L0 
     /tmp/ccnaknX8.s:99     .text:0000000000000084 .L0 
     /tmp/ccnaknX8.s:101    .text:0000000000000088 .L0 
     /tmp/ccnaknX8.s:105    .text:0000000000000088 .L0 
     /tmp/ccnaknX8.s:106    .text:0000000000000088 .L0 
     /tmp/ccnaknX8.s:113    .text:0000000000000090 .L0 
     /tmp/ccnaknX8.s:117    .text:0000000000000094 .L0 
     /tmp/ccnaknX8.s:122    .text:00000000000000a0 .L0 
     /tmp/ccnaknX8.s:126    .text:00000000000000a4 .L0 
     /tmp/ccnaknX8.s:130    .text:00000000000000b0 .L0 
     /tmp/ccnaknX8.s:139    .text:00000000000000b8 .L0 
     /tmp/ccnaknX8.s:143    .text:00000000000000bc .L0 
     /tmp/ccnaknX8.s:147    .text:00000000000000c4 .L0 
     /tmp/ccnaknX8.s:148    .text:00000000000000c4 .L0 
     /tmp/ccnaknX8.s:152    .text:00000000000000d4 .L0 
     /tmp/ccnaknX8.s:153    .text:00000000000000d4 .L0 
     /tmp/ccnaknX8.s:157    .text:00000000000000e0 .L0 
     /tmp/ccnaknX8.s:158    .text:00000000000000e0 .L0 
     /tmp/ccnaknX8.s:163    .text:00000000000000f0 .L0 
     /tmp/ccnaknX8.s:164    .text:00000000000000f0 .L0 
     /tmp/ccnaknX8.s:172    .text:00000000000000f8 .L0 
GAS LISTING /tmp/ccnaknX8.s 			page 18


     /tmp/ccnaknX8.s:173    .text:00000000000000fc .L0 
     /tmp/ccnaknX8.s:175    .text:0000000000000100 .L0 
     /tmp/ccnaknX8.s:176    .text:0000000000000100 .L0 
     /tmp/ccnaknX8.s:178    .text:0000000000000104 .L0 
     /tmp/ccnaknX8.s:181    .text:0000000000000108 .L0 
     /tmp/ccnaknX8.s:183    .text:000000000000010c .L0 
     /tmp/ccnaknX8.s:194    .text:000000000000010c _Z11workerBodyBv
     /tmp/ccnaknX8.s:197    .text:000000000000010c .L0 
     /tmp/ccnaknX8.s:198    .text:000000000000010c .L0 
     /tmp/ccnaknX8.s:199    .text:0000000000000110 .L0 
     /tmp/ccnaknX8.s:203    .text:000000000000011c .L0 
     /tmp/ccnaknX8.s:204    .text:000000000000011c .L0 
     /tmp/ccnaknX8.s:205    .text:000000000000011c .L0 
     /tmp/ccnaknX8.s:207    .text:0000000000000120 .L0 
     /tmp/ccnaknX8.s:211    .text:0000000000000120 .L0 
     /tmp/ccnaknX8.s:212    .text:0000000000000120 .L0 
     /tmp/ccnaknX8.s:219    .text:0000000000000128 .L0 
     /tmp/ccnaknX8.s:223    .text:000000000000012c .L0 
     /tmp/ccnaknX8.s:228    .text:0000000000000138 .L0 
     /tmp/ccnaknX8.s:232    .text:000000000000013c .L0 
     /tmp/ccnaknX8.s:236    .text:0000000000000148 .L0 
     /tmp/ccnaknX8.s:245    .text:0000000000000150 .L0 
     /tmp/ccnaknX8.s:249    .text:0000000000000154 .L0 
     /tmp/ccnaknX8.s:253    .text:000000000000015c .L0 
     /tmp/ccnaknX8.s:254    .text:000000000000015c .L0 
     /tmp/ccnaknX8.s:258    .text:000000000000016c .L0 
     /tmp/ccnaknX8.s:259    .text:000000000000016c .L0 
     /tmp/ccnaknX8.s:263    .text:0000000000000178 .L0 
     /tmp/ccnaknX8.s:264    .text:0000000000000178 .L0 
     /tmp/ccnaknX8.s:269    .text:0000000000000188 .L0 
     /tmp/ccnaknX8.s:270    .text:0000000000000188 .L0 
     /tmp/ccnaknX8.s:278    .text:0000000000000190 .L0 
     /tmp/ccnaknX8.s:279    .text:0000000000000194 .L0 
     /tmp/ccnaknX8.s:281    .text:0000000000000198 .L0 
     /tmp/ccnaknX8.s:282    .text:0000000000000198 .L0 
     /tmp/ccnaknX8.s:284    .text:000000000000019c .L0 
     /tmp/ccnaknX8.s:287    .text:00000000000001a0 .L0 
     /tmp/ccnaknX8.s:289    .text:00000000000001a4 .L0 
     /tmp/ccnaknX8.s:309    .text:00000000000001a4 _Z11workerBodyCv
     /tmp/ccnaknX8.s:312    .text:00000000000001a4 .L0 
     /tmp/ccnaknX8.s:313    .text:00000000000001a4 .L0 
     /tmp/ccnaknX8.s:314    .text:00000000000001a8 .L0 
     /tmp/ccnaknX8.s:319    .text:00000000000001b8 .L0 
     /tmp/ccnaknX8.s:320    .text:00000000000001b8 .L0 
     /tmp/ccnaknX8.s:321    .text:00000000000001b8 .L0 
     /tmp/ccnaknX8.s:322    .text:00000000000001b8 .L0 
     /tmp/ccnaknX8.s:324    .text:00000000000001bc .L0 
     /tmp/ccnaknX8.s:327    .text:00000000000001bc .L0 
     /tmp/ccnaknX8.s:328    .text:00000000000001bc .L0 
     /tmp/ccnaknX8.s:333    .text:00000000000001c4 .L0 
     /tmp/ccnaknX8.s:334    .text:00000000000001c4 .L0 
     /tmp/ccnaknX8.s:338    .text:00000000000001d4 .L0 
     /tmp/ccnaknX8.s:339    .text:00000000000001d4 .L0 
     /tmp/ccnaknX8.s:343    .text:00000000000001e0 .L0 
     /tmp/ccnaknX8.s:344    .text:00000000000001e0 .L0 
     /tmp/ccnaknX8.s:348    .text:00000000000001f0 .L0 
     /tmp/ccnaknX8.s:354    .text:00000000000001f8 .L0 
GAS LISTING /tmp/ccnaknX8.s 			page 19


     /tmp/ccnaknX8.s:355    .text:00000000000001f8 .L0 
     /tmp/ccnaknX8.s:358    .text:0000000000000200 .L0 
     /tmp/ccnaknX8.s:359    .text:0000000000000200 .L0 
     /tmp/ccnaknX8.s:364    .text:0000000000000214 .L0 
     /tmp/ccnaknX8.s:365    .text:0000000000000214 .L0 
     /tmp/ccnaknX8.s:369    .text:0000000000000224 .L0 
     src/workers.cpp:67     .text:0000000000000224 .L0 
     /tmp/ccnaknX8.s:375    .text:0000000000000228 .L0 
     /tmp/ccnaknX8.s:377    .text:0000000000000228 .L0 
     /tmp/ccnaknX8.s:380    .text:0000000000000230 .L0 
     /tmp/ccnaknX8.s:381    .text:0000000000000230 .L0 
     src/workers.cpp:71     .text:0000000000000230 .L0 
     /tmp/ccnaknX8.s:388    .text:0000000000000234 .L0 
     /tmp/ccnaknX8.s:390    .text:0000000000000234 .L0 
     /tmp/ccnaknX8.s:394    .text:0000000000000244 .L0 
     /tmp/ccnaknX8.s:395    .text:0000000000000244 .L0 
     /tmp/ccnaknX8.s:399    .text:0000000000000250 .L0 
     /tmp/ccnaknX8.s:400    .text:0000000000000250 .L0 
     /tmp/ccnaknX8.s:404    .text:0000000000000260 .L0 
     /tmp/ccnaknX8.s:405    .text:0000000000000260 .L0 
     /tmp/ccnaknX8.s:411    .text:0000000000000270 .L0 
     /tmp/ccnaknX8.s:412    .text:0000000000000270 .L0 
     /tmp/ccnaknX8.s:417    .text:0000000000000280 .L0 
     /tmp/ccnaknX8.s:418    .text:0000000000000280 .L0 
     /tmp/ccnaknX8.s:422    .text:000000000000028c .L0 
     /tmp/ccnaknX8.s:423    .text:000000000000028c .L0 
     /tmp/ccnaknX8.s:429    .text:00000000000002a0 .L0 
     /tmp/ccnaknX8.s:430    .text:00000000000002a0 .L0 
     /tmp/ccnaknX8.s:434    .text:00000000000002b0 .L0 
     /tmp/ccnaknX8.s:435    .text:00000000000002b0 .L0 
     /tmp/ccnaknX8.s:439    .text:00000000000002bc .L0 
     /tmp/ccnaknX8.s:440    .text:00000000000002bc .L0 
     /tmp/ccnaknX8.s:444    .text:00000000000002cc .L0 
     /tmp/ccnaknX8.s:450    .text:00000000000002d4 .L0 
     /tmp/ccnaknX8.s:451    .text:00000000000002d4 .L0 
     /tmp/ccnaknX8.s:454    .text:00000000000002dc .L0 
     /tmp/ccnaknX8.s:455    .text:00000000000002e0 .L0 
     /tmp/ccnaknX8.s:457    .text:00000000000002e4 .L0 
     /tmp/ccnaknX8.s:458    .text:00000000000002e4 .L0 
     /tmp/ccnaknX8.s:460    .text:00000000000002e8 .L0 
     /tmp/ccnaknX8.s:463    .text:00000000000002ec .L0 
     /tmp/ccnaknX8.s:466    .text:00000000000002f0 .L0 
     /tmp/ccnaknX8.s:468    .text:00000000000002f4 .L0 
     /tmp/ccnaknX8.s:485    .text:00000000000002f4 _Z11workerBodyDv
     /tmp/ccnaknX8.s:488    .text:00000000000002f4 .L0 
     /tmp/ccnaknX8.s:489    .text:00000000000002f4 .L0 
     /tmp/ccnaknX8.s:490    .text:00000000000002f8 .L0 
     /tmp/ccnaknX8.s:495    .text:0000000000000308 .L0 
     /tmp/ccnaknX8.s:496    .text:0000000000000308 .L0 
     /tmp/ccnaknX8.s:497    .text:0000000000000308 .L0 
     /tmp/ccnaknX8.s:498    .text:0000000000000308 .L0 
     /tmp/ccnaknX8.s:500    .text:000000000000030c .L0 
     /tmp/ccnaknX8.s:503    .text:000000000000030c .L0 
     /tmp/ccnaknX8.s:504    .text:000000000000030c .L0 
     /tmp/ccnaknX8.s:509    .text:0000000000000314 .L0 
     /tmp/ccnaknX8.s:510    .text:0000000000000314 .L0 
     /tmp/ccnaknX8.s:514    .text:0000000000000324 .L0 
GAS LISTING /tmp/ccnaknX8.s 			page 20


     /tmp/ccnaknX8.s:515    .text:0000000000000324 .L0 
     /tmp/ccnaknX8.s:519    .text:0000000000000330 .L0 
     /tmp/ccnaknX8.s:520    .text:0000000000000330 .L0 
     /tmp/ccnaknX8.s:524    .text:0000000000000340 .L0 
     /tmp/ccnaknX8.s:530    .text:0000000000000348 .L0 
     /tmp/ccnaknX8.s:531    .text:0000000000000348 .L0 
     /tmp/ccnaknX8.s:534    .text:0000000000000350 .L0 
     /tmp/ccnaknX8.s:535    .text:0000000000000350 .L0 
     /tmp/ccnaknX8.s:539    .text:0000000000000360 .L0 
     src/workers.cpp:102    .text:0000000000000360 .L0 
     /tmp/ccnaknX8.s:545    .text:0000000000000364 .L0 
     /tmp/ccnaknX8.s:547    .text:0000000000000364 .L0 
     /tmp/ccnaknX8.s:550    .text:000000000000036c .L0 
     /tmp/ccnaknX8.s:551    .text:000000000000036c .L0 
     /tmp/ccnaknX8.s:557    .text:000000000000037c .L0 
     /tmp/ccnaknX8.s:558    .text:000000000000037c .L0 
     /tmp/ccnaknX8.s:563    .text:000000000000038c .L0 
     /tmp/ccnaknX8.s:564    .text:000000000000038c .L0 
     /tmp/ccnaknX8.s:568    .text:0000000000000398 .L0 
     /tmp/ccnaknX8.s:569    .text:0000000000000398 .L0 
     /tmp/ccnaknX8.s:575    .text:00000000000003ac .L0 
     /tmp/ccnaknX8.s:576    .text:00000000000003ac .L0 
     /tmp/ccnaknX8.s:580    .text:00000000000003bc .L0 
     /tmp/ccnaknX8.s:581    .text:00000000000003bc .L0 
     /tmp/ccnaknX8.s:585    .text:00000000000003c8 .L0 
     /tmp/ccnaknX8.s:586    .text:00000000000003c8 .L0 
     /tmp/ccnaknX8.s:590    .text:00000000000003d8 .L0 
     /tmp/ccnaknX8.s:596    .text:00000000000003e0 .L0 
     /tmp/ccnaknX8.s:597    .text:00000000000003e0 .L0 
     /tmp/ccnaknX8.s:600    .text:00000000000003e8 .L0 
     /tmp/ccnaknX8.s:601    .text:00000000000003ec .L0 
     /tmp/ccnaknX8.s:603    .text:00000000000003f0 .L0 
     /tmp/ccnaknX8.s:604    .text:00000000000003f0 .L0 
     /tmp/ccnaknX8.s:606    .text:00000000000003f4 .L0 
     /tmp/ccnaknX8.s:609    .text:00000000000003f8 .L0 
     /tmp/ccnaknX8.s:612    .text:00000000000003fc .L0 
     /tmp/ccnaknX8.s:614    .text:0000000000000400 .L0 
     /tmp/ccnaknX8.s:623    .text:0000000000000400 .L0 
     /tmp/ccnaknX8.s:79     .rodata.str1.8:0000000000000000 .LC0
     /tmp/ccnaknX8.s:148    .text:00000000000000c4 .L0 
     /tmp/ccnaknX8.s:82     .rodata.str1.8:0000000000000008 .LC1
     /tmp/ccnaknX8.s:158    .text:00000000000000e0 .L0 
     /tmp/ccnaknX8.s:188    .rodata.str1.8:0000000000000010 .LC2
     /tmp/ccnaknX8.s:254    .text:000000000000015c .L0 
     /tmp/ccnaknX8.s:264    .text:0000000000000178 .L0 
     /tmp/ccnaknX8.s:294    .rodata.str1.8:0000000000000018 .LC3
     /tmp/ccnaknX8.s:334    .text:00000000000001c4 .L0 
     /tmp/ccnaknX8.s:344    .text:00000000000001e0 .L0 
     /tmp/ccnaknX8.s:359    .text:0000000000000200 .L0 
     /tmp/ccnaknX8.s:297    .rodata.str1.8:0000000000000020 .LC4
     /tmp/ccnaknX8.s:365    .text:0000000000000214 .L0 
     /tmp/ccnaknX8.s:300    .rodata.str1.8:0000000000000030 .LC5
     /tmp/ccnaknX8.s:390    .text:0000000000000234 .L0 
     /tmp/ccnaknX8.s:400    .text:0000000000000250 .L0 
     /tmp/ccnaknX8.s:303    .rodata.str1.8:0000000000000038 .LC6
     /tmp/ccnaknX8.s:412    .text:0000000000000270 .L0 
     /tmp/ccnaknX8.s:423    .text:000000000000028c .L0 
GAS LISTING /tmp/ccnaknX8.s 			page 21


     /tmp/ccnaknX8.s:430    .text:00000000000002a0 .L0 
     /tmp/ccnaknX8.s:440    .text:00000000000002bc .L0 
     /tmp/ccnaknX8.s:473    .rodata.str1.8:0000000000000048 .LC7
     /tmp/ccnaknX8.s:510    .text:0000000000000314 .L0 
     /tmp/ccnaknX8.s:520    .text:0000000000000330 .L0 
     /tmp/ccnaknX8.s:476    .rodata.str1.8:0000000000000050 .LC8
     /tmp/ccnaknX8.s:535    .text:0000000000000350 .L0 
     /tmp/ccnaknX8.s:479    .rodata.str1.8:0000000000000060 .LC9
     /tmp/ccnaknX8.s:558    .text:000000000000037c .L0 
     /tmp/ccnaknX8.s:569    .text:0000000000000398 .L0 
     /tmp/ccnaknX8.s:576    .text:00000000000003ac .L0 
     /tmp/ccnaknX8.s:586    .text:00000000000003c8 .L0 
     /tmp/ccnaknX8.s:50     .text:0000000000000050 .L1
     /tmp/ccnaknX8.s:67     .text:0000000000000068 .L6
     /tmp/ccnaknX8.s:37     .text:0000000000000030 .L3
     /tmp/ccnaknX8.s:141    .text:00000000000000bc .L13
     /tmp/ccnaknX8.s:134    .text:00000000000000b8 .L9
     /tmp/ccnaknX8.s:109    .text:0000000000000090 .L10
     /tmp/ccnaknX8.s:123    .text:00000000000000a4 .L11
     /tmp/ccnaknX8.s:167    .text:00000000000000f8 .L7
     /tmp/ccnaknX8.s:115    .text:0000000000000094 .L12
     /tmp/ccnaknX8.s:247    .text:0000000000000154 .L21
     /tmp/ccnaknX8.s:240    .text:0000000000000150 .L17
     /tmp/ccnaknX8.s:215    .text:0000000000000128 .L18
     /tmp/ccnaknX8.s:229    .text:000000000000013c .L19
     /tmp/ccnaknX8.s:273    .text:0000000000000190 .L15
     /tmp/ccnaknX8.s:221    .text:000000000000012c .L20
     /tmp/ccnaknX8.s:352    .text:00000000000001f8 .L25
     /tmp/ccnaknX8.s:331    .text:00000000000001c4 .L29
     /tmp/ccnaknX8.s:448    .text:00000000000002d4 .L27
     /tmp/ccnaknX8.s:427    .text:00000000000002a0 .L30
     /tmp/ccnaknX8.s:528    .text:0000000000000348 .L33
     /tmp/ccnaknX8.s:507    .text:0000000000000314 .L37
     /tmp/ccnaknX8.s:594    .text:00000000000003e0 .L35
     /tmp/ccnaknX8.s:573    .text:00000000000003ac .L38
     /tmp/ccnaknX8.s:1896   .debug_abbrev:0000000000000000 .Ldebug_abbrev0
     /tmp/ccnaknX8.s:3055   .debug_str:0000000000000592 .LASF99
     /tmp/ccnaknX8.s:2897   .debug_str:0000000000000116 .LASF100
     /tmp/ccnaknX8.s:2923   .debug_str:00000000000001ca .LASF101
     /tmp/ccnaknX8.s:5      .text:0000000000000000 .Ltext0
     /tmp/ccnaknX8.s:617    .text:0000000000000400 .Letext0
     /tmp/ccnaknX8.s:2859   .debug_line:0000000000000000 .Ldebug_line0
     /tmp/ccnaknX8.s:2997   .debug_str:0000000000000404 .LASF0
     /tmp/ccnaknX8.s:3011   .debug_str:0000000000000473 .LASF1
     /tmp/ccnaknX8.s:2981   .debug_str:0000000000000390 .LASF2
     /tmp/ccnaknX8.s:2913   .debug_str:000000000000019e .LASF3
     /tmp/ccnaknX8.s:2907   .debug_str:000000000000015e .LASF4
     /tmp/ccnaknX8.s:2951   .debug_str:00000000000002d2 .LASF5
     /tmp/ccnaknX8.s:3041   .debug_str:000000000000053d .LASF6
     /tmp/ccnaknX8.s:2883   .debug_str:00000000000000c0 .LASF7
     /tmp/ccnaknX8.s:3013   .debug_str:0000000000000486 .LASF8
     /tmp/ccnaknX8.s:2995   .debug_str:00000000000003f1 .LASF9
     /tmp/ccnaknX8.s:3067   .debug_str:000000000000069f .LASF10
     /tmp/ccnaknX8.s:2931   .debug_str:000000000000020a .LASF11
     /tmp/ccnaknX8.s:3019   .debug_str:00000000000004b8 .LASF12
     /tmp/ccnaknX8.s:3059   .debug_str:0000000000000662 .LASF13
     /tmp/ccnaknX8.s:2889   .debug_str:00000000000000da .LASF14
GAS LISTING /tmp/ccnaknX8.s 			page 22


     /tmp/ccnaknX8.s:2869   .debug_str:0000000000000049 .LASF15
     /tmp/ccnaknX8.s:2893   .debug_str:00000000000000f4 .LASF16
     /tmp/ccnaknX8.s:3035   .debug_str:0000000000000519 .LASF17
     /tmp/ccnaknX8.s:2903   .debug_str:0000000000000143 .LASF18
     /tmp/ccnaknX8.s:2971   .debug_str:0000000000000358 .LASF48
     /tmp/ccnaknX8.s:2973   .debug_str:0000000000000362 .LASF102
     /tmp/ccnaknX8.s:2905   .debug_str:0000000000000159 .LASF19
     /tmp/ccnaknX8.s:2977   .debug_str:0000000000000374 .LASF20
     /tmp/ccnaknX8.s:3047   .debug_str:000000000000056a .LASF21
     /tmp/ccnaknX8.s:3051   .debug_str:0000000000000584 .LASF22
     /tmp/ccnaknX8.s:2949   .debug_str:00000000000002cd .LASF23
     /tmp/ccnaknX8.s:3001   .debug_str:000000000000041a .LASF25
     /tmp/ccnaknX8.s:3033   .debug_str:0000000000000502 .LASF28
     /tmp/ccnaknX8.s:2987   .debug_str:00000000000003ba .LASF103
     /tmp/ccnaknX8.s:2937   .debug_str:0000000000000252 .LASF104
     /tmp/ccnaknX8.s:3089   .debug_str:0000000000000747 .LASF24
     /tmp/ccnaknX8.s:2979   .debug_str:0000000000000379 .LASF26
     /tmp/ccnaknX8.s:3085   .debug_str:000000000000072d .LASF27
     /tmp/ccnaknX8.s:2895   .debug_str:0000000000000100 .LASF29
     /tmp/ccnaknX8.s:2925   .debug_str:00000000000001e8 .LASF30
     /tmp/ccnaknX8.s:2959   .debug_str:00000000000002ee .LASF31
     /tmp/ccnaknX8.s:3063   .debug_str:0000000000000683 .LASF32
     /tmp/ccnaknX8.s:2943   .debug_str:0000000000000287 .LASF33
     /tmp/ccnaknX8.s:3053   .debug_str:0000000000000589 .LASF34
     /tmp/ccnaknX8.s:2911   .debug_str:0000000000000181 .LASF35
     /tmp/ccnaknX8.s:2929   .debug_str:0000000000000202 .LASF36
     /tmp/ccnaknX8.s:2909   .debug_str:0000000000000165 .LASF37
     /tmp/ccnaknX8.s:3057   .debug_str:0000000000000656 .LASF38
     /tmp/ccnaknX8.s:2863   .debug_str:0000000000000009 .LASF39
     /tmp/ccnaknX8.s:2891   .debug_str:00000000000000ea .LASF40
     /tmp/ccnaknX8.s:2963   .debug_str:0000000000000314 .LASF41
     /tmp/ccnaknX8.s:3003   .debug_str:000000000000042d .LASF42
     /tmp/ccnaknX8.s:2877   .debug_str:000000000000007e .LASF43
     /tmp/ccnaknX8.s:2965   .debug_str:000000000000032f .LASF44
     /tmp/ccnaknX8.s:3081   .debug_str:0000000000000700 .LASF45
     /tmp/ccnaknX8.s:3029   .debug_str:00000000000004ed .LASF46
     /tmp/ccnaknX8.s:3077   .debug_str:00000000000006df .LASF47
     /tmp/ccnaknX8.s:2873   .debug_str:0000000000000065 .LASF105
     /tmp/ccnaknX8.s:2941   .debug_str:0000000000000282 .LASF49
     /tmp/ccnaknX8.s:3021   .debug_str:00000000000004c7 .LASF50
     /tmp/ccnaknX8.s:3015   .debug_str:0000000000000499 .LASF51
     /tmp/ccnaknX8.s:2901   .debug_str:000000000000012c .LASF52
     /tmp/ccnaknX8.s:2983   .debug_str:000000000000039e .LASF53
     /tmp/ccnaknX8.s:2945   .debug_str:00000000000002a4 .LASF54
     /tmp/ccnaknX8.s:2975   .debug_str:0000000000000367 .LASF55
     /tmp/ccnaknX8.s:2881   .debug_str:00000000000000a7 .LASF56
     /tmp/ccnaknX8.s:2961   .debug_str:0000000000000307 .LASF57
     /tmp/ccnaknX8.s:3009   .debug_str:0000000000000453 .LASF58
     /tmp/ccnaknX8.s:3025   .debug_str:00000000000004df .LASF106
     /tmp/ccnaknX8.s:3037   .debug_str:000000000000052f .LASF107
     /tmp/ccnaknX8.s:2985   .debug_str:00000000000003aa .LASF108
     /tmp/ccnaknX8.s:2915   .debug_str:00000000000001a4 .LASF59
     /tmp/ccnaknX8.s:2947   .debug_str:00000000000002bb .LASF60
     /tmp/ccnaknX8.s:2885   .debug_str:00000000000000c7 .LASF61
     /tmp/ccnaknX8.s:2933   .debug_str:0000000000000218 .LASF62
     /tmp/ccnaknX8.s:2917   .debug_str:00000000000001aa .LASF109
     /tmp/ccnaknX8.s:2991   .debug_str:00000000000003d0 .LASF110
GAS LISTING /tmp/ccnaknX8.s 			page 23


     /tmp/ccnaknX8.s:2957   .debug_str:00000000000002e9 .LASF63
     /tmp/ccnaknX8.s:2899   .debug_str:0000000000000126 .LASF64
     /tmp/ccnaknX8.s:3039   .debug_str:0000000000000535 .LASF65
     /tmp/ccnaknX8.s:3005   .debug_str:0000000000000438 .LASF66
     /tmp/ccnaknX8.s:2955   .debug_str:00000000000002e0 .LASF67
     /tmp/ccnaknX8.s:3031   .debug_str:00000000000004f5 .LASF68
     /tmp/ccnaknX8.s:2967   .debug_str:0000000000000338 .LASF69
     /tmp/ccnaknX8.s:2939   .debug_str:0000000000000269 .LASF71
     /tmp/ccnaknX8.s:3071   .debug_str:00000000000006b9 .LASF111
     /tmp/ccnaknX8.s:2935   .debug_str:000000000000022a .LASF112
     /tmp/ccnaknX8.s:2999   .debug_str:0000000000000411 .LASF70
     /tmp/ccnaknX8.s:2919   .debug_str:00000000000001b2 .LASF72
     /tmp/ccnaknX8.s:3043   .debug_str:000000000000054f .LASF113
     /tmp/ccnaknX8.s:2887   .debug_str:00000000000000cf .LASF73
     /tmp/ccnaknX8.s:3075   .debug_str:00000000000006d4 .LASF74
     /tmp/ccnaknX8.s:2921   .debug_str:00000000000001c5 .LASF75
     /tmp/ccnaknX8.s:3045   .debug_str:0000000000000560 .LASF76
     /tmp/ccnaknX8.s:3027   .debug_str:00000000000004e4 .LASF77
     /tmp/ccnaknX8.s:3017   .debug_str:00000000000004a4 .LASF78
     /tmp/ccnaknX8.s:2969   .debug_str:0000000000000346 .LASF79
     /tmp/ccnaknX8.s:2865   .debug_str:0000000000000027 .LASF80
     /tmp/ccnaknX8.s:2927   .debug_str:00000000000001f0 .LASF81
     /tmp/ccnaknX8.s:2861   .debug_str:0000000000000000 .LASF82
     /tmp/ccnaknX8.s:3079   .debug_str:00000000000006f8 .LASF83
     /tmp/ccnaknX8.s:2879   .debug_str:000000000000009b .LASF84
     /tmp/ccnaknX8.s:3007   .debug_str:0000000000000442 .LASF85
     /tmp/ccnaknX8.s:486    .text:00000000000002f4 .LFB26
     /tmp/ccnaknX8.s:615    .text:0000000000000400 .LFE26
     /tmp/ccnaknX8.s:2670   .debug_loc:0000000000000000 .LLST10
     /tmp/ccnaknX8.s:2953   .debug_str:00000000000002d9 .LASF86
     /tmp/ccnaknX8.s:2690   .debug_loc:000000000000005d .LLST11
     /tmp/ccnaknX8.s:512    .text:0000000000000324 .LVL60
     /tmp/ccnaknX8.s:517    .text:0000000000000330 .LVL61
     /tmp/ccnaknX8.s:522    .text:0000000000000340 .LVL62
     /tmp/ccnaknX8.s:537    .text:0000000000000360 .LVL65
     /tmp/ccnaknX8.s:548    .text:000000000000036c .LVL66
     /tmp/ccnaknX8.s:553    .text:0000000000000378 .LVL67
     /tmp/ccnaknX8.s:561    .text:000000000000038c .LVL70
     /tmp/ccnaknX8.s:566    .text:0000000000000398 .LVL71
     /tmp/ccnaknX8.s:571    .text:00000000000003a8 .LVL72
     /tmp/ccnaknX8.s:578    .text:00000000000003bc .LVL73
     /tmp/ccnaknX8.s:583    .text:00000000000003c8 .LVL74
     /tmp/ccnaknX8.s:588    .text:00000000000003d8 .LVL75
     /tmp/ccnaknX8.s:2867   .debug_str:000000000000003d .LASF87
     /tmp/ccnaknX8.s:3065   .debug_str:000000000000068e .LASF88
     /tmp/ccnaknX8.s:310    .text:00000000000001a4 .LFB25
     /tmp/ccnaknX8.s:469    .text:00000000000002f4 .LFE25
     /tmp/ccnaknX8.s:2701   .debug_loc:0000000000000093 .LLST7
     /tmp/ccnaknX8.s:2721   .debug_loc:00000000000000f0 .LLST8
     /tmp/ccnaknX8.s:2729   .debug_loc:0000000000000114 .LLST9
     /tmp/ccnaknX8.s:336    .text:00000000000001d4 .LVL33
     /tmp/ccnaknX8.s:341    .text:00000000000001e0 .LVL34
     /tmp/ccnaknX8.s:346    .text:00000000000001f0 .LVL35
     /tmp/ccnaknX8.s:362    .text:0000000000000214 .LVL38
     /tmp/ccnaknX8.s:367    .text:0000000000000224 .LVL39
     /tmp/ccnaknX8.s:378    .text:0000000000000230 .LVL40
     /tmp/ccnaknX8.s:392    .text:0000000000000244 .LVL42
GAS LISTING /tmp/ccnaknX8.s 			page 24


     /tmp/ccnaknX8.s:397    .text:0000000000000250 .LVL43
     /tmp/ccnaknX8.s:402    .text:0000000000000260 .LVL44
     /tmp/ccnaknX8.s:407    .text:000000000000026c .LVL45
     /tmp/ccnaknX8.s:415    .text:0000000000000280 .LVL48
     /tmp/ccnaknX8.s:420    .text:000000000000028c .LVL49
     /tmp/ccnaknX8.s:425    .text:000000000000029c .LVL50
     /tmp/ccnaknX8.s:432    .text:00000000000002b0 .LVL51
     /tmp/ccnaknX8.s:437    .text:00000000000002bc .LVL52
     /tmp/ccnaknX8.s:442    .text:00000000000002cc .LVL53
     /tmp/ccnaknX8.s:3069   .debug_str:00000000000006af .LASF114
     /tmp/ccnaknX8.s:9      .text:0000000000000000 .LFB24
     /tmp/ccnaknX8.s:75     .text:0000000000000074 .LFE24
     /tmp/ccnaknX8.s:2740   .debug_loc:000000000000014a .LLST0
     /tmp/ccnaknX8.s:42     .text:000000000000003c .LVL2
     /tmp/ccnaknX8.s:47     .text:000000000000004c .LVL3
     /tmp/ccnaknX8.s:72     .text:0000000000000070 .LVL6
     /tmp/ccnaknX8.s:2993   .debug_str:00000000000003e5 .LASF89
     /tmp/ccnaknX8.s:2875   .debug_str:000000000000006d .LASF90
     /tmp/ccnaknX8.s:195    .text:000000000000010c .LFB23
     /tmp/ccnaknX8.s:290    .text:00000000000001a4 .LFE23
     /tmp/ccnaknX8.s:210    .text:0000000000000120 .LBB8
     /tmp/ccnaknX8.s:276    .text:0000000000000190 .LBE8
     /tmp/ccnaknX8.s:2762   .debug_loc:00000000000001a9 .LLST4
     /tmp/ccnaknX8.s:2845   .debug_ranges:0000000000000000 .Ldebug_ranges0
     /tmp/ccnaknX8.s:2774   .debug_loc:00000000000001e0 .LLST5
     /tmp/ccnaknX8.s:226    .text:0000000000000138 .LBB11
     /tmp/ccnaknX8.s:241    .text:0000000000000150 .LBE11
     /tmp/ccnaknX8.s:2786   .debug_loc:0000000000000217 .LLST6
     /tmp/ccnaknX8.s:256    .text:000000000000016c .LVL26
     /tmp/ccnaknX8.s:261    .text:0000000000000178 .LVL27
     /tmp/ccnaknX8.s:266    .text:0000000000000188 .LVL28
     /tmp/ccnaknX8.s:2989   .debug_str:00000000000003c4 .LASF91
     /tmp/ccnaknX8.s:3049   .debug_str:0000000000000573 .LASF92
     /tmp/ccnaknX8.s:89     .text:0000000000000074 .LFB22
     /tmp/ccnaknX8.s:184    .text:000000000000010c .LFE22
     /tmp/ccnaknX8.s:104    .text:0000000000000088 .LBB2
     /tmp/ccnaknX8.s:170    .text:00000000000000f8 .LBE2
     /tmp/ccnaknX8.s:2797   .debug_loc:000000000000024d .LLST1
     /tmp/ccnaknX8.s:2809   .debug_loc:0000000000000284 .LLST2
     /tmp/ccnaknX8.s:120    .text:00000000000000a0 .LBB5
     /tmp/ccnaknX8.s:135    .text:00000000000000b8 .LBE5
     /tmp/ccnaknX8.s:2821   .debug_loc:00000000000002bb .LLST3
     /tmp/ccnaknX8.s:150    .text:00000000000000d4 .LVL14
     /tmp/ccnaknX8.s:155    .text:00000000000000e0 .LVL15
     /tmp/ccnaknX8.s:160    .text:00000000000000f0 .LVL16
     /tmp/ccnaknX8.s:3083   .debug_str:000000000000071a .LASF93
     /tmp/ccnaknX8.s:2871   .debug_str:0000000000000059 .LASF95
     /tmp/ccnaknX8.s:3061   .debug_str:0000000000000671 .LASF94
     /tmp/ccnaknX8.s:3073   .debug_str:00000000000006c7 .LASF96
     /tmp/ccnaknX8.s:3087   .debug_str:0000000000000732 .LASF97
     /tmp/ccnaknX8.s:3023   .debug_str:00000000000004d3 .LASF98
     /tmp/ccnaknX8.s:502    .text:000000000000030c .LVL58
     /tmp/ccnaknX8.s:506    .text:0000000000000314 .LVL59
     /tmp/ccnaknX8.s:525    .text:0000000000000344 .LVL63
     /tmp/ccnaknX8.s:527    .text:0000000000000348 .LVL64
     /tmp/ccnaknX8.s:591    .text:00000000000003dc .LVL76
     /tmp/ccnaknX8.s:593    .text:00000000000003e0 .LVL77
GAS LISTING /tmp/ccnaknX8.s 			page 25


     /tmp/ccnaknX8.s:607    .text:00000000000003f4 .LVL78
     /tmp/ccnaknX8.s:555    .text:000000000000037c .LVL68
     /tmp/ccnaknX8.s:559    .text:0000000000000384 .LVL69
     /tmp/ccnaknX8.s:610    .text:00000000000003f8 .LVL79
     /tmp/ccnaknX8.s:326    .text:00000000000001bc .LVL31
     /tmp/ccnaknX8.s:330    .text:00000000000001c4 .LVL32
     /tmp/ccnaknX8.s:349    .text:00000000000001f4 .LVL36
     /tmp/ccnaknX8.s:351    .text:00000000000001f8 .LVL37
     /tmp/ccnaknX8.s:445    .text:00000000000002d0 .LVL54
     /tmp/ccnaknX8.s:447    .text:00000000000002d4 .LVL55
     /tmp/ccnaknX8.s:461    .text:00000000000002e8 .LVL56
     /tmp/ccnaknX8.s:386    .text:0000000000000234 .LVL41
     /tmp/ccnaknX8.s:409    .text:0000000000000270 .LVL46
     /tmp/ccnaknX8.s:413    .text:0000000000000278 .LVL47
     /tmp/ccnaknX8.s:464    .text:00000000000002ec .LVL57
     /tmp/ccnaknX8.s:13     .text:0000000000000000 .LVL0
     /tmp/ccnaknX8.s:36     .text:0000000000000030 .LVL1
     /tmp/ccnaknX8.s:60     .text:000000000000005c .LVL4
     /tmp/ccnaknX8.s:66     .text:0000000000000068 .LVL5
     /tmp/ccnaknX8.s:209    .text:0000000000000120 .LVL19
     /tmp/ccnaknX8.s:214    .text:0000000000000128 .LVL20
     /tmp/ccnaknX8.s:285    .text:000000000000019c .LVL30
     /tmp/ccnaknX8.s:246    .text:0000000000000154 .LVL25
     /tmp/ccnaknX8.s:272    .text:0000000000000190 .LVL29
     /tmp/ccnaknX8.s:220    .text:000000000000012c .LVL21
     /tmp/ccnaknX8.s:230    .text:000000000000013c .LVL22
     /tmp/ccnaknX8.s:239    .text:0000000000000150 .LVL24
     /tmp/ccnaknX8.s:103    .text:0000000000000088 .LVL7
     /tmp/ccnaknX8.s:108    .text:0000000000000090 .LVL8
     /tmp/ccnaknX8.s:179    .text:0000000000000104 .LVL18
     /tmp/ccnaknX8.s:140    .text:00000000000000bc .LVL13
     /tmp/ccnaknX8.s:166    .text:00000000000000f8 .LVL17
     /tmp/ccnaknX8.s:114    .text:0000000000000094 .LVL9
     /tmp/ccnaknX8.s:124    .text:00000000000000a4 .LVL10
     /tmp/ccnaknX8.s:133    .text:00000000000000b8 .LVL12
     /tmp/ccnaknX8.s:624    .debug_info:0000000000000000 .Ldebug_info0
     /tmp/ccnaknX8.s:111    .text:0000000000000090 .LBB4
     /tmp/ccnaknX8.s:136    .text:00000000000000b8 .LBE4
     /tmp/ccnaknX8.s:162    .text:00000000000000f0 .LBB6
     /tmp/ccnaknX8.s:168    .text:00000000000000f8 .LBE6
     /tmp/ccnaknX8.s:217    .text:0000000000000128 .LBB10
     /tmp/ccnaknX8.s:242    .text:0000000000000150 .LBE10
     /tmp/ccnaknX8.s:268    .text:0000000000000188 .LBB12
     /tmp/ccnaknX8.s:274    .text:0000000000000190 .LBE12

UNDEFINED SYMBOLS
_ZN3TCB5yieldEv
_Z11printStringPKc
_Z12printIntegerm
handle1
_Z11thread_joinP3TCB
